ARM GAS  /tmp/ccZ63Pwo.s 			page 1


   1              		.cpu cortex-m0plus
   2              		.fpu softvfp
   3              		.eabi_attribute 20, 1
   4              		.eabi_attribute 21, 1
   5              		.eabi_attribute 23, 3
   6              		.eabi_attribute 24, 1
   7              		.eabi_attribute 25, 1
   8              		.eabi_attribute 26, 1
   9              		.eabi_attribute 30, 1
  10              		.eabi_attribute 34, 0
  11              		.eabi_attribute 18, 4
  12              		.code	16
  13              		.file	"stm32l0xx_hal_rtc_ex.c"
  14              		.text
  15              	.Ltext0:
  16              		.cfi_sections	.debug_frame
  17              		.section	.text.HAL_RTCEx_SetTimeStamp,"ax",%progbits
  18              		.align	2
  19              		.global	HAL_RTCEx_SetTimeStamp
  20              		.code	16
  21              		.thumb_func
  23              	HAL_RTCEx_SetTimeStamp:
  24              	.LFB36:
  25              		.file 1 "Drivers/STM32L0xx_HAL_Driver/Src/stm32l0xx_hal_rtc_ex.c"
   1:Drivers/STM32L0xx_HAL_Driver/Src/stm32l0xx_hal_rtc_ex.c **** /**
   2:Drivers/STM32L0xx_HAL_Driver/Src/stm32l0xx_hal_rtc_ex.c ****   ******************************************************************************
   3:Drivers/STM32L0xx_HAL_Driver/Src/stm32l0xx_hal_rtc_ex.c ****   * @file    stm32l0xx_hal_rtc_ex.c
   4:Drivers/STM32L0xx_HAL_Driver/Src/stm32l0xx_hal_rtc_ex.c ****   * @author  MCD Application Team
   5:Drivers/STM32L0xx_HAL_Driver/Src/stm32l0xx_hal_rtc_ex.c ****   * @brief   Extended RTC HAL module driver.
   6:Drivers/STM32L0xx_HAL_Driver/Src/stm32l0xx_hal_rtc_ex.c ****   *
   7:Drivers/STM32L0xx_HAL_Driver/Src/stm32l0xx_hal_rtc_ex.c ****   *          This file provides firmware functions to manage the following 
   8:Drivers/STM32L0xx_HAL_Driver/Src/stm32l0xx_hal_rtc_ex.c ****   *          functionalities of the Real Time Clock (RTC) Extended peripheral:
   9:Drivers/STM32L0xx_HAL_Driver/Src/stm32l0xx_hal_rtc_ex.c ****   *           + RTC Time Stamp functions
  10:Drivers/STM32L0xx_HAL_Driver/Src/stm32l0xx_hal_rtc_ex.c ****   *           + RTC Tamper functions 
  11:Drivers/STM32L0xx_HAL_Driver/Src/stm32l0xx_hal_rtc_ex.c ****   *           + RTC Wake-up functions
  12:Drivers/STM32L0xx_HAL_Driver/Src/stm32l0xx_hal_rtc_ex.c ****   *           + Extended Control functions
  13:Drivers/STM32L0xx_HAL_Driver/Src/stm32l0xx_hal_rtc_ex.c ****   *           + Extended RTC features functions    
  14:Drivers/STM32L0xx_HAL_Driver/Src/stm32l0xx_hal_rtc_ex.c ****   *
  15:Drivers/STM32L0xx_HAL_Driver/Src/stm32l0xx_hal_rtc_ex.c ****   @verbatim
  16:Drivers/STM32L0xx_HAL_Driver/Src/stm32l0xx_hal_rtc_ex.c ****   ==============================================================================
  17:Drivers/STM32L0xx_HAL_Driver/Src/stm32l0xx_hal_rtc_ex.c ****                   ##### How to use this driver #####
  18:Drivers/STM32L0xx_HAL_Driver/Src/stm32l0xx_hal_rtc_ex.c ****   ==============================================================================
  19:Drivers/STM32L0xx_HAL_Driver/Src/stm32l0xx_hal_rtc_ex.c ****   [..]
  20:Drivers/STM32L0xx_HAL_Driver/Src/stm32l0xx_hal_rtc_ex.c ****     (+) Enable the RTC domain access.
  21:Drivers/STM32L0xx_HAL_Driver/Src/stm32l0xx_hal_rtc_ex.c ****     (+) Configure the RTC Prescaler (Asynchronous and Synchronous) and RTC hour
  22:Drivers/STM32L0xx_HAL_Driver/Src/stm32l0xx_hal_rtc_ex.c ****         format using the HAL_RTC_Init() function.
  23:Drivers/STM32L0xx_HAL_Driver/Src/stm32l0xx_hal_rtc_ex.c **** 
  24:Drivers/STM32L0xx_HAL_Driver/Src/stm32l0xx_hal_rtc_ex.c ****   *** RTC Wakeup configuration ***
  25:Drivers/STM32L0xx_HAL_Driver/Src/stm32l0xx_hal_rtc_ex.c ****   ================================
  26:Drivers/STM32L0xx_HAL_Driver/Src/stm32l0xx_hal_rtc_ex.c ****   [..] 
  27:Drivers/STM32L0xx_HAL_Driver/Src/stm32l0xx_hal_rtc_ex.c ****     (+) To configure the RTC Wakeup Clock source and Counter use the HAL_RTCEx_SetWakeUpTimer()
  28:Drivers/STM32L0xx_HAL_Driver/Src/stm32l0xx_hal_rtc_ex.c ****         function. You can also configure the RTC Wakeup timer with interrupt mode 
  29:Drivers/STM32L0xx_HAL_Driver/Src/stm32l0xx_hal_rtc_ex.c ****         using the HAL_RTCEx_SetWakeUpTimer_IT() function.
  30:Drivers/STM32L0xx_HAL_Driver/Src/stm32l0xx_hal_rtc_ex.c ****     (+) To read the RTC WakeUp Counter register, use the HAL_RTCEx_GetWakeUpTimer()
  31:Drivers/STM32L0xx_HAL_Driver/Src/stm32l0xx_hal_rtc_ex.c ****         function.
  32:Drivers/STM32L0xx_HAL_Driver/Src/stm32l0xx_hal_rtc_ex.c ****         
  33:Drivers/STM32L0xx_HAL_Driver/Src/stm32l0xx_hal_rtc_ex.c ****   *** Outputs configuration ***
ARM GAS  /tmp/ccZ63Pwo.s 			page 2


  34:Drivers/STM32L0xx_HAL_Driver/Src/stm32l0xx_hal_rtc_ex.c ****   =============================
  35:Drivers/STM32L0xx_HAL_Driver/Src/stm32l0xx_hal_rtc_ex.c ****   [..] The RTC has 2 different outputs:
  36:Drivers/STM32L0xx_HAL_Driver/Src/stm32l0xx_hal_rtc_ex.c ****     (+) RTC_ALARM: this output is used to manage the RTC Alarm A, Alarm B
  37:Drivers/STM32L0xx_HAL_Driver/Src/stm32l0xx_hal_rtc_ex.c ****         and WaKeUp signals.
  38:Drivers/STM32L0xx_HAL_Driver/Src/stm32l0xx_hal_rtc_ex.c ****         To output the selected RTC signal, use the HAL_RTC_Init() function.             
  39:Drivers/STM32L0xx_HAL_Driver/Src/stm32l0xx_hal_rtc_ex.c ****     (+) RTC_CALIB: this output is 512Hz signal or 1Hz.
  40:Drivers/STM32L0xx_HAL_Driver/Src/stm32l0xx_hal_rtc_ex.c ****         To enable the RTC_CALIB, use the HAL_RTCEx_SetCalibrationOutPut() function.
  41:Drivers/STM32L0xx_HAL_Driver/Src/stm32l0xx_hal_rtc_ex.c ****     (+) Two pins can be used as RTC_ALARM or RTC_CALIB (PC13, PB14) for STM32L05x/6x/7x/8x 
  42:Drivers/STM32L0xx_HAL_Driver/Src/stm32l0xx_hal_rtc_ex.c **** 	    and (PA2, PB14) for STM32L03x/4x managed on the RTC_OR register.
  43:Drivers/STM32L0xx_HAL_Driver/Src/stm32l0xx_hal_rtc_ex.c ****     (+) When the RTC_CALIB or RTC_ALARM output is selected, the RTC_OUT pin is
  44:Drivers/STM32L0xx_HAL_Driver/Src/stm32l0xx_hal_rtc_ex.c ****         automatically configured in output alternate function. 
  45:Drivers/STM32L0xx_HAL_Driver/Src/stm32l0xx_hal_rtc_ex.c ****         
  46:Drivers/STM32L0xx_HAL_Driver/Src/stm32l0xx_hal_rtc_ex.c ****   *** Smooth digital Calibration configuration ***
  47:Drivers/STM32L0xx_HAL_Driver/Src/stm32l0xx_hal_rtc_ex.c ****   ================================================
  48:Drivers/STM32L0xx_HAL_Driver/Src/stm32l0xx_hal_rtc_ex.c ****   [..]
  49:Drivers/STM32L0xx_HAL_Driver/Src/stm32l0xx_hal_rtc_ex.c ****     (+) Configure the RTC Original Digital Calibration Value and the corresponding
  50:Drivers/STM32L0xx_HAL_Driver/Src/stm32l0xx_hal_rtc_ex.c ****         calibration cycle period (32s,16s and 8s) using the HAL_RTCEx_SetSmoothCalib() 
  51:Drivers/STM32L0xx_HAL_Driver/Src/stm32l0xx_hal_rtc_ex.c ****         function.
  52:Drivers/STM32L0xx_HAL_Driver/Src/stm32l0xx_hal_rtc_ex.c **** 
  53:Drivers/STM32L0xx_HAL_Driver/Src/stm32l0xx_hal_rtc_ex.c ****   *** TimeStamp configuration ***
  54:Drivers/STM32L0xx_HAL_Driver/Src/stm32l0xx_hal_rtc_ex.c ****   ===============================
  55:Drivers/STM32L0xx_HAL_Driver/Src/stm32l0xx_hal_rtc_ex.c ****   [..]
  56:Drivers/STM32L0xx_HAL_Driver/Src/stm32l0xx_hal_rtc_ex.c ****         (+) Configure the RTC_AF trigger and enable the RTC TimeStamp using the 
  57:Drivers/STM32L0xx_HAL_Driver/Src/stm32l0xx_hal_rtc_ex.c ****             HAL_RTCEx_SetTimeStamp() function. You can also configure the RTC TimeStamp with 
  58:Drivers/STM32L0xx_HAL_Driver/Src/stm32l0xx_hal_rtc_ex.c ****             interrupt mode using the HAL_RTCEx_SetTimeStamp_IT() function.
  59:Drivers/STM32L0xx_HAL_Driver/Src/stm32l0xx_hal_rtc_ex.c ****         (+) To read the RTC TimeStamp Time and Date register, use the HAL_RTCEx_GetTimeStamp()
  60:Drivers/STM32L0xx_HAL_Driver/Src/stm32l0xx_hal_rtc_ex.c ****             function.
  61:Drivers/STM32L0xx_HAL_Driver/Src/stm32l0xx_hal_rtc_ex.c **** 
  62:Drivers/STM32L0xx_HAL_Driver/Src/stm32l0xx_hal_rtc_ex.c ****   *** Tamper configuration ***
  63:Drivers/STM32L0xx_HAL_Driver/Src/stm32l0xx_hal_rtc_ex.c ****   ============================
  64:Drivers/STM32L0xx_HAL_Driver/Src/stm32l0xx_hal_rtc_ex.c ****   [..]
  65:Drivers/STM32L0xx_HAL_Driver/Src/stm32l0xx_hal_rtc_ex.c ****         (+) Enable the RTC Tamper and configure the Tamper filter count, trigger Edge 
  66:Drivers/STM32L0xx_HAL_Driver/Src/stm32l0xx_hal_rtc_ex.c ****         or Level according to the Tamper filter (if equal to 0 Edge else Level) 
  67:Drivers/STM32L0xx_HAL_Driver/Src/stm32l0xx_hal_rtc_ex.c ****         value, sampling frequency, NoErase, MaskFlag,  precharge or discharge and
  68:Drivers/STM32L0xx_HAL_Driver/Src/stm32l0xx_hal_rtc_ex.c ****         Pull-UP using the HAL_RTCEx_SetTamper() function. You can configure RTC Tamper
  69:Drivers/STM32L0xx_HAL_Driver/Src/stm32l0xx_hal_rtc_ex.c ****         with interrupt mode using HAL_RTCEx_SetTamper_IT() function.
  70:Drivers/STM32L0xx_HAL_Driver/Src/stm32l0xx_hal_rtc_ex.c ****     (+) The default configuration of the Tamper erases the backup registers. To avoid
  71:Drivers/STM32L0xx_HAL_Driver/Src/stm32l0xx_hal_rtc_ex.c ****         erase, enable the NoErase field on the RTC_TAMPCR register.
  72:Drivers/STM32L0xx_HAL_Driver/Src/stm32l0xx_hal_rtc_ex.c **** 
  73:Drivers/STM32L0xx_HAL_Driver/Src/stm32l0xx_hal_rtc_ex.c ****   *** Backup Data Registers configuration ***
  74:Drivers/STM32L0xx_HAL_Driver/Src/stm32l0xx_hal_rtc_ex.c ****   ===========================================
  75:Drivers/STM32L0xx_HAL_Driver/Src/stm32l0xx_hal_rtc_ex.c ****   [..]
  76:Drivers/STM32L0xx_HAL_Driver/Src/stm32l0xx_hal_rtc_ex.c ****     (+) To write to the RTC Backup Data registers, use the HAL_RTCEx_BKUPWrite()
  77:Drivers/STM32L0xx_HAL_Driver/Src/stm32l0xx_hal_rtc_ex.c ****         function.
  78:Drivers/STM32L0xx_HAL_Driver/Src/stm32l0xx_hal_rtc_ex.c ****     (+) To read the RTC Backup Data registers, use the HAL_RTCEx_BKUPRead()
  79:Drivers/STM32L0xx_HAL_Driver/Src/stm32l0xx_hal_rtc_ex.c ****         function.
  80:Drivers/STM32L0xx_HAL_Driver/Src/stm32l0xx_hal_rtc_ex.c **** 
  81:Drivers/STM32L0xx_HAL_Driver/Src/stm32l0xx_hal_rtc_ex.c ****    @endverbatim
  82:Drivers/STM32L0xx_HAL_Driver/Src/stm32l0xx_hal_rtc_ex.c ****   ******************************************************************************
  83:Drivers/STM32L0xx_HAL_Driver/Src/stm32l0xx_hal_rtc_ex.c ****   * @attention
  84:Drivers/STM32L0xx_HAL_Driver/Src/stm32l0xx_hal_rtc_ex.c ****   *
  85:Drivers/STM32L0xx_HAL_Driver/Src/stm32l0xx_hal_rtc_ex.c ****   * <h2><center>&copy; COPYRIGHT(c) 2016 STMicroelectronics</center></h2>
  86:Drivers/STM32L0xx_HAL_Driver/Src/stm32l0xx_hal_rtc_ex.c ****   *
  87:Drivers/STM32L0xx_HAL_Driver/Src/stm32l0xx_hal_rtc_ex.c ****   * Redistribution and use in source and binary forms, with or without modification,
  88:Drivers/STM32L0xx_HAL_Driver/Src/stm32l0xx_hal_rtc_ex.c ****   * are permitted provided that the following conditions are met:
  89:Drivers/STM32L0xx_HAL_Driver/Src/stm32l0xx_hal_rtc_ex.c ****   *   1. Redistributions of source code must retain the above copyright notice,
  90:Drivers/STM32L0xx_HAL_Driver/Src/stm32l0xx_hal_rtc_ex.c ****   *      this list of conditions and the following disclaimer.
ARM GAS  /tmp/ccZ63Pwo.s 			page 3


  91:Drivers/STM32L0xx_HAL_Driver/Src/stm32l0xx_hal_rtc_ex.c ****   *   2. Redistributions in binary form must reproduce the above copyright notice,
  92:Drivers/STM32L0xx_HAL_Driver/Src/stm32l0xx_hal_rtc_ex.c ****   *      this list of conditions and the following disclaimer in the documentation
  93:Drivers/STM32L0xx_HAL_Driver/Src/stm32l0xx_hal_rtc_ex.c ****   *      and/or other materials provided with the distribution.
  94:Drivers/STM32L0xx_HAL_Driver/Src/stm32l0xx_hal_rtc_ex.c ****   *   3. Neither the name of STMicroelectronics nor the names of its contributors
  95:Drivers/STM32L0xx_HAL_Driver/Src/stm32l0xx_hal_rtc_ex.c ****   *      may be used to endorse or promote products derived from this software
  96:Drivers/STM32L0xx_HAL_Driver/Src/stm32l0xx_hal_rtc_ex.c ****   *      without specific prior written permission.
  97:Drivers/STM32L0xx_HAL_Driver/Src/stm32l0xx_hal_rtc_ex.c ****   *
  98:Drivers/STM32L0xx_HAL_Driver/Src/stm32l0xx_hal_rtc_ex.c ****   * THIS SOFTWARE IS PROVIDED BY THE COPYRIGHT HOLDERS AND CONTRIBUTORS "AS IS"
  99:Drivers/STM32L0xx_HAL_Driver/Src/stm32l0xx_hal_rtc_ex.c ****   * AND ANY EXPRESS OR IMPLIED WARRANTIES, INCLUDING, BUT NOT LIMITED TO, THE
 100:Drivers/STM32L0xx_HAL_Driver/Src/stm32l0xx_hal_rtc_ex.c ****   * IMPLIED WARRANTIES OF MERCHANTABILITY AND FITNESS FOR A PARTICULAR PURPOSE ARE
 101:Drivers/STM32L0xx_HAL_Driver/Src/stm32l0xx_hal_rtc_ex.c ****   * DISCLAIMED. IN NO EVENT SHALL THE COPYRIGHT HOLDER OR CONTRIBUTORS BE LIABLE
 102:Drivers/STM32L0xx_HAL_Driver/Src/stm32l0xx_hal_rtc_ex.c ****   * FOR ANY DIRECT, INDIRECT, INCIDENTAL, SPECIAL, EXEMPLARY, OR CONSEQUENTIAL
 103:Drivers/STM32L0xx_HAL_Driver/Src/stm32l0xx_hal_rtc_ex.c ****   * DAMAGES (INCLUDING, BUT NOT LIMITED TO, PROCUREMENT OF SUBSTITUTE GOODS OR
 104:Drivers/STM32L0xx_HAL_Driver/Src/stm32l0xx_hal_rtc_ex.c ****   * SERVICES; LOSS OF USE, DATA, OR PROFITS; OR BUSINESS INTERRUPTION) HOWEVER
 105:Drivers/STM32L0xx_HAL_Driver/Src/stm32l0xx_hal_rtc_ex.c ****   * CAUSED AND ON ANY THEORY OF LIABILITY, WHETHER IN CONTRACT, STRICT LIABILITY,
 106:Drivers/STM32L0xx_HAL_Driver/Src/stm32l0xx_hal_rtc_ex.c ****   * OR TORT (INCLUDING NEGLIGENCE OR OTHERWISE) ARISING IN ANY WAY OUT OF THE USE
 107:Drivers/STM32L0xx_HAL_Driver/Src/stm32l0xx_hal_rtc_ex.c ****   * OF THIS SOFTWARE, EVEN IF ADVISED OF THE POSSIBILITY OF SUCH DAMAGE.
 108:Drivers/STM32L0xx_HAL_Driver/Src/stm32l0xx_hal_rtc_ex.c ****   *
 109:Drivers/STM32L0xx_HAL_Driver/Src/stm32l0xx_hal_rtc_ex.c ****   ******************************************************************************  
 110:Drivers/STM32L0xx_HAL_Driver/Src/stm32l0xx_hal_rtc_ex.c ****   */
 111:Drivers/STM32L0xx_HAL_Driver/Src/stm32l0xx_hal_rtc_ex.c **** 
 112:Drivers/STM32L0xx_HAL_Driver/Src/stm32l0xx_hal_rtc_ex.c **** /* Includes ------------------------------------------------------------------*/
 113:Drivers/STM32L0xx_HAL_Driver/Src/stm32l0xx_hal_rtc_ex.c **** #include "stm32l0xx_hal.h"
 114:Drivers/STM32L0xx_HAL_Driver/Src/stm32l0xx_hal_rtc_ex.c **** 
 115:Drivers/STM32L0xx_HAL_Driver/Src/stm32l0xx_hal_rtc_ex.c **** /** @addtogroup STM32L0xx_HAL_Driver
 116:Drivers/STM32L0xx_HAL_Driver/Src/stm32l0xx_hal_rtc_ex.c ****   * @{
 117:Drivers/STM32L0xx_HAL_Driver/Src/stm32l0xx_hal_rtc_ex.c ****   */
 118:Drivers/STM32L0xx_HAL_Driver/Src/stm32l0xx_hal_rtc_ex.c **** 
 119:Drivers/STM32L0xx_HAL_Driver/Src/stm32l0xx_hal_rtc_ex.c **** /** @addtogroup RTCEx
 120:Drivers/STM32L0xx_HAL_Driver/Src/stm32l0xx_hal_rtc_ex.c ****   * @brief RTC Extended HAL module driver
 121:Drivers/STM32L0xx_HAL_Driver/Src/stm32l0xx_hal_rtc_ex.c ****   * @{
 122:Drivers/STM32L0xx_HAL_Driver/Src/stm32l0xx_hal_rtc_ex.c ****   */
 123:Drivers/STM32L0xx_HAL_Driver/Src/stm32l0xx_hal_rtc_ex.c **** 
 124:Drivers/STM32L0xx_HAL_Driver/Src/stm32l0xx_hal_rtc_ex.c **** #ifdef HAL_RTC_MODULE_ENABLED
 125:Drivers/STM32L0xx_HAL_Driver/Src/stm32l0xx_hal_rtc_ex.c **** 
 126:Drivers/STM32L0xx_HAL_Driver/Src/stm32l0xx_hal_rtc_ex.c **** /* Private typedef -----------------------------------------------------------*/
 127:Drivers/STM32L0xx_HAL_Driver/Src/stm32l0xx_hal_rtc_ex.c **** /* Private define ------------------------------------------------------------*/
 128:Drivers/STM32L0xx_HAL_Driver/Src/stm32l0xx_hal_rtc_ex.c **** /* Private macro -------------------------------------------------------------*/
 129:Drivers/STM32L0xx_HAL_Driver/Src/stm32l0xx_hal_rtc_ex.c **** /* Private variables ---------------------------------------------------------*/
 130:Drivers/STM32L0xx_HAL_Driver/Src/stm32l0xx_hal_rtc_ex.c **** /* Private function prototypes -----------------------------------------------*/
 131:Drivers/STM32L0xx_HAL_Driver/Src/stm32l0xx_hal_rtc_ex.c **** /* Exported functions --------------------------------------------------------*/
 132:Drivers/STM32L0xx_HAL_Driver/Src/stm32l0xx_hal_rtc_ex.c **** 
 133:Drivers/STM32L0xx_HAL_Driver/Src/stm32l0xx_hal_rtc_ex.c **** /** @addtogroup RTCEx_Exported_Functions
 134:Drivers/STM32L0xx_HAL_Driver/Src/stm32l0xx_hal_rtc_ex.c ****   * @{
 135:Drivers/STM32L0xx_HAL_Driver/Src/stm32l0xx_hal_rtc_ex.c ****   */
 136:Drivers/STM32L0xx_HAL_Driver/Src/stm32l0xx_hal_rtc_ex.c **** 
 137:Drivers/STM32L0xx_HAL_Driver/Src/stm32l0xx_hal_rtc_ex.c **** 
 138:Drivers/STM32L0xx_HAL_Driver/Src/stm32l0xx_hal_rtc_ex.c **** /** @addtogroup RTCEx_Exported_Functions_Group1
 139:Drivers/STM32L0xx_HAL_Driver/Src/stm32l0xx_hal_rtc_ex.c ****  *  @brief   RTC TimeStamp and Tamper functions
 140:Drivers/STM32L0xx_HAL_Driver/Src/stm32l0xx_hal_rtc_ex.c ****   *
 141:Drivers/STM32L0xx_HAL_Driver/Src/stm32l0xx_hal_rtc_ex.c **** @verbatim
 142:Drivers/STM32L0xx_HAL_Driver/Src/stm32l0xx_hal_rtc_ex.c ****  ===============================================================================
 143:Drivers/STM32L0xx_HAL_Driver/Src/stm32l0xx_hal_rtc_ex.c ****                  ##### RTC TimeStamp and Tamper functions #####
 144:Drivers/STM32L0xx_HAL_Driver/Src/stm32l0xx_hal_rtc_ex.c ****  ===============================================================================
 145:Drivers/STM32L0xx_HAL_Driver/Src/stm32l0xx_hal_rtc_ex.c ****  
 146:Drivers/STM32L0xx_HAL_Driver/Src/stm32l0xx_hal_rtc_ex.c ****  [..] This section provides functions allowing to configure TimeStamp feature
 147:Drivers/STM32L0xx_HAL_Driver/Src/stm32l0xx_hal_rtc_ex.c **** 
ARM GAS  /tmp/ccZ63Pwo.s 			page 4


 148:Drivers/STM32L0xx_HAL_Driver/Src/stm32l0xx_hal_rtc_ex.c **** @endverbatim
 149:Drivers/STM32L0xx_HAL_Driver/Src/stm32l0xx_hal_rtc_ex.c ****   * @{
 150:Drivers/STM32L0xx_HAL_Driver/Src/stm32l0xx_hal_rtc_ex.c ****   */
 151:Drivers/STM32L0xx_HAL_Driver/Src/stm32l0xx_hal_rtc_ex.c **** 
 152:Drivers/STM32L0xx_HAL_Driver/Src/stm32l0xx_hal_rtc_ex.c **** /**
 153:Drivers/STM32L0xx_HAL_Driver/Src/stm32l0xx_hal_rtc_ex.c ****   * @brief  Set TimeStamp.
 154:Drivers/STM32L0xx_HAL_Driver/Src/stm32l0xx_hal_rtc_ex.c ****   * @note   This API must be called before enabling the TimeStamp feature.
 155:Drivers/STM32L0xx_HAL_Driver/Src/stm32l0xx_hal_rtc_ex.c ****   * @param  hrtc: RTC handle
 156:Drivers/STM32L0xx_HAL_Driver/Src/stm32l0xx_hal_rtc_ex.c ****   * @param  TimeStampEdge: Specifies the pin edge on which the TimeStamp is
 157:Drivers/STM32L0xx_HAL_Driver/Src/stm32l0xx_hal_rtc_ex.c ****   *         activated.
 158:Drivers/STM32L0xx_HAL_Driver/Src/stm32l0xx_hal_rtc_ex.c ****   *          This parameter can be one of the following values:
 159:Drivers/STM32L0xx_HAL_Driver/Src/stm32l0xx_hal_rtc_ex.c ****   *             @arg RTC_TIMESTAMPEDGE_RISING: the Time stamp event occurs on the  
 160:Drivers/STM32L0xx_HAL_Driver/Src/stm32l0xx_hal_rtc_ex.c ****   *                                        rising edge of the related pin.
 161:Drivers/STM32L0xx_HAL_Driver/Src/stm32l0xx_hal_rtc_ex.c ****   *             @arg RTC_TIMESTAMPEDGE_FALLING: the Time stamp event occurs on the 
 162:Drivers/STM32L0xx_HAL_Driver/Src/stm32l0xx_hal_rtc_ex.c ****   *                                         falling edge of the related pin.
 163:Drivers/STM32L0xx_HAL_Driver/Src/stm32l0xx_hal_rtc_ex.c ****   * @param  RTC_TimeStampPin: specifies the RTC TimeStamp Pin.
 164:Drivers/STM32L0xx_HAL_Driver/Src/stm32l0xx_hal_rtc_ex.c ****   *          This parameter can be one of the following values:
 165:Drivers/STM32L0xx_HAL_Driver/Src/stm32l0xx_hal_rtc_ex.c ****   *             @arg RTC_TIMESTAMPPIN_DEFAULT: PC13 is selected as RTC TimeStamp Pin on STM32L05x/6
 166:Drivers/STM32L0xx_HAL_Driver/Src/stm32l0xx_hal_rtc_ex.c ****   *                                            and PA2 on STM32L03x/4x/2x/1x.
 167:Drivers/STM32L0xx_HAL_Driver/Src/stm32l0xx_hal_rtc_ex.c ****   * @retval HAL status
 168:Drivers/STM32L0xx_HAL_Driver/Src/stm32l0xx_hal_rtc_ex.c ****   */
 169:Drivers/STM32L0xx_HAL_Driver/Src/stm32l0xx_hal_rtc_ex.c **** HAL_StatusTypeDef HAL_RTCEx_SetTimeStamp(RTC_HandleTypeDef *hrtc, uint32_t TimeStampEdge, uint32_t 
 170:Drivers/STM32L0xx_HAL_Driver/Src/stm32l0xx_hal_rtc_ex.c **** {
  26              		.loc 1 170 0
  27              		.cfi_startproc
  28              	.LVL0:
  29 0000 F0B5     		push	{r4, r5, r6, r7, lr}
  30              	.LCFI0:
  31              		.cfi_def_cfa_offset 20
  32              		.cfi_offset 4, -20
  33              		.cfi_offset 5, -16
  34              		.cfi_offset 6, -12
  35              		.cfi_offset 7, -8
  36              		.cfi_offset 14, -4
  37              	.LVL1:
 171:Drivers/STM32L0xx_HAL_Driver/Src/stm32l0xx_hal_rtc_ex.c ****   uint32_t tmpreg = 0U;
 172:Drivers/STM32L0xx_HAL_Driver/Src/stm32l0xx_hal_rtc_ex.c **** 
 173:Drivers/STM32L0xx_HAL_Driver/Src/stm32l0xx_hal_rtc_ex.c ****   /* Check the parameters */
 174:Drivers/STM32L0xx_HAL_Driver/Src/stm32l0xx_hal_rtc_ex.c ****   assert_param(IS_TIMESTAMP_EDGE(TimeStampEdge));
 175:Drivers/STM32L0xx_HAL_Driver/Src/stm32l0xx_hal_rtc_ex.c ****   assert_param(IS_RTC_TIMESTAMP_PIN(RTC_TimeStampPin));
 176:Drivers/STM32L0xx_HAL_Driver/Src/stm32l0xx_hal_rtc_ex.c **** 
 177:Drivers/STM32L0xx_HAL_Driver/Src/stm32l0xx_hal_rtc_ex.c ****   /* Process Locked */
 178:Drivers/STM32L0xx_HAL_Driver/Src/stm32l0xx_hal_rtc_ex.c ****   __HAL_LOCK(hrtc);
  38              		.loc 1 178 0
  39 0002 2023     		mov	r3, #32
  40 0004 C35C     		ldrb	r3, [r0, r3]
  41 0006 012B     		cmp	r3, #1
  42 0008 1FD0     		beq	.L3
  43              		.loc 1 178 0 is_stmt 0 discriminator 2
  44 000a 2022     		mov	r2, #32
  45              	.LVL2:
  46 000c 0125     		mov	r5, #1
  47 000e 8554     		strb	r5, [r0, r2]
 179:Drivers/STM32L0xx_HAL_Driver/Src/stm32l0xx_hal_rtc_ex.c **** 
 180:Drivers/STM32L0xx_HAL_Driver/Src/stm32l0xx_hal_rtc_ex.c ****   hrtc->State = HAL_RTC_STATE_BUSY;
  48              		.loc 1 180 0 is_stmt 1 discriminator 2
  49 0010 2124     		mov	r4, #33
ARM GAS  /tmp/ccZ63Pwo.s 			page 5


  50 0012 0223     		mov	r3, #2
  51 0014 0355     		strb	r3, [r0, r4]
 181:Drivers/STM32L0xx_HAL_Driver/Src/stm32l0xx_hal_rtc_ex.c **** 
 182:Drivers/STM32L0xx_HAL_Driver/Src/stm32l0xx_hal_rtc_ex.c ****   /* Get the RTC_CR register and clear the bits to be configured */
 183:Drivers/STM32L0xx_HAL_Driver/Src/stm32l0xx_hal_rtc_ex.c ****   tmpreg = (uint32_t)(hrtc->Instance->CR & (uint32_t)~(RTC_CR_TSEDGE | RTC_CR_TSE));
  52              		.loc 1 183 0 discriminator 2
  53 0016 0668     		ldr	r6, [r0]
  54 0018 B768     		ldr	r7, [r6, #8]
  55 001a 0D4B     		ldr	r3, .L4
  56 001c 3B40     		and	r3, r7
  57              	.LVL3:
 184:Drivers/STM32L0xx_HAL_Driver/Src/stm32l0xx_hal_rtc_ex.c **** 
 185:Drivers/STM32L0xx_HAL_Driver/Src/stm32l0xx_hal_rtc_ex.c ****   tmpreg|= TimeStampEdge;
  58              		.loc 1 185 0 discriminator 2
  59 001e 1943     		orr	r1, r3
  60              	.LVL4:
 186:Drivers/STM32L0xx_HAL_Driver/Src/stm32l0xx_hal_rtc_ex.c **** 
 187:Drivers/STM32L0xx_HAL_Driver/Src/stm32l0xx_hal_rtc_ex.c ****   /* Disable the write protection for RTC registers */
 188:Drivers/STM32L0xx_HAL_Driver/Src/stm32l0xx_hal_rtc_ex.c ****   __HAL_RTC_WRITEPROTECTION_DISABLE(hrtc);
  61              		.loc 1 188 0 discriminator 2
  62 0020 CA23     		mov	r3, #202
  63 0022 7362     		str	r3, [r6, #36]
  64 0024 0368     		ldr	r3, [r0]
  65 0026 5326     		mov	r6, #83
  66 0028 5E62     		str	r6, [r3, #36]
 189:Drivers/STM32L0xx_HAL_Driver/Src/stm32l0xx_hal_rtc_ex.c **** 
 190:Drivers/STM32L0xx_HAL_Driver/Src/stm32l0xx_hal_rtc_ex.c ****   /* Configure the Time Stamp TSEDGE and Enable bits */
 191:Drivers/STM32L0xx_HAL_Driver/Src/stm32l0xx_hal_rtc_ex.c ****   hrtc->Instance->CR = (uint32_t)tmpreg;
  67              		.loc 1 191 0 discriminator 2
  68 002a 0368     		ldr	r3, [r0]
  69 002c 9960     		str	r1, [r3, #8]
 192:Drivers/STM32L0xx_HAL_Driver/Src/stm32l0xx_hal_rtc_ex.c **** 
 193:Drivers/STM32L0xx_HAL_Driver/Src/stm32l0xx_hal_rtc_ex.c ****   __HAL_RTC_TIMESTAMP_ENABLE(hrtc);
  70              		.loc 1 193 0 discriminator 2
  71 002e 0168     		ldr	r1, [r0]
  72              	.LVL5:
  73 0030 8B68     		ldr	r3, [r1, #8]
  74              	.LVL6:
  75 0032 8026     		mov	r6, #128
  76 0034 3601     		lsl	r6, r6, #4
  77 0036 3343     		orr	r3, r6
  78 0038 8B60     		str	r3, [r1, #8]
 194:Drivers/STM32L0xx_HAL_Driver/Src/stm32l0xx_hal_rtc_ex.c **** 
 195:Drivers/STM32L0xx_HAL_Driver/Src/stm32l0xx_hal_rtc_ex.c ****   /* Enable the write protection for RTC registers */
 196:Drivers/STM32L0xx_HAL_Driver/Src/stm32l0xx_hal_rtc_ex.c ****   __HAL_RTC_WRITEPROTECTION_ENABLE(hrtc);
  79              		.loc 1 196 0 discriminator 2
  80 003a 0368     		ldr	r3, [r0]
  81 003c FF21     		mov	r1, #255
  82 003e 5962     		str	r1, [r3, #36]
 197:Drivers/STM32L0xx_HAL_Driver/Src/stm32l0xx_hal_rtc_ex.c **** 
 198:Drivers/STM32L0xx_HAL_Driver/Src/stm32l0xx_hal_rtc_ex.c ****   /* Change RTC state */
 199:Drivers/STM32L0xx_HAL_Driver/Src/stm32l0xx_hal_rtc_ex.c ****   hrtc->State = HAL_RTC_STATE_READY; 
  83              		.loc 1 199 0 discriminator 2
  84 0040 0555     		strb	r5, [r0, r4]
 200:Drivers/STM32L0xx_HAL_Driver/Src/stm32l0xx_hal_rtc_ex.c **** 
 201:Drivers/STM32L0xx_HAL_Driver/Src/stm32l0xx_hal_rtc_ex.c ****   /* Process Unlocked */ 
 202:Drivers/STM32L0xx_HAL_Driver/Src/stm32l0xx_hal_rtc_ex.c ****   __HAL_UNLOCK(hrtc);
ARM GAS  /tmp/ccZ63Pwo.s 			page 6


  85              		.loc 1 202 0 discriminator 2
  86 0042 0023     		mov	r3, #0
  87 0044 8354     		strb	r3, [r0, r2]
 203:Drivers/STM32L0xx_HAL_Driver/Src/stm32l0xx_hal_rtc_ex.c **** 
 204:Drivers/STM32L0xx_HAL_Driver/Src/stm32l0xx_hal_rtc_ex.c ****   return HAL_OK;
  88              		.loc 1 204 0 discriminator 2
  89 0046 0020     		mov	r0, #0
  90              	.LVL7:
  91 0048 00E0     		b	.L2
  92              	.LVL8:
  93              	.L3:
 178:Drivers/STM32L0xx_HAL_Driver/Src/stm32l0xx_hal_rtc_ex.c **** 
  94              		.loc 1 178 0
  95 004a 0220     		mov	r0, #2
  96              	.LVL9:
  97              	.L2:
 205:Drivers/STM32L0xx_HAL_Driver/Src/stm32l0xx_hal_rtc_ex.c **** }
  98              		.loc 1 205 0
  99              		@ sp needed
 100 004c F0BD     		pop	{r4, r5, r6, r7, pc}
 101              	.L5:
 102 004e C046     		.align	2
 103              	.L4:
 104 0050 F7F7FFFF 		.word	-2057
 105              		.cfi_endproc
 106              	.LFE36:
 108              		.section	.text.HAL_RTCEx_SetTimeStamp_IT,"ax",%progbits
 109              		.align	2
 110              		.global	HAL_RTCEx_SetTimeStamp_IT
 111              		.code	16
 112              		.thumb_func
 114              	HAL_RTCEx_SetTimeStamp_IT:
 115              	.LFB37:
 206:Drivers/STM32L0xx_HAL_Driver/Src/stm32l0xx_hal_rtc_ex.c **** 
 207:Drivers/STM32L0xx_HAL_Driver/Src/stm32l0xx_hal_rtc_ex.c **** /**
 208:Drivers/STM32L0xx_HAL_Driver/Src/stm32l0xx_hal_rtc_ex.c ****   * @brief  Set TimeStamp with Interrupt.
 209:Drivers/STM32L0xx_HAL_Driver/Src/stm32l0xx_hal_rtc_ex.c ****   * @param  hrtc: RTC handle
 210:Drivers/STM32L0xx_HAL_Driver/Src/stm32l0xx_hal_rtc_ex.c ****   * @note   This API must be called before enabling the TimeStamp feature.
 211:Drivers/STM32L0xx_HAL_Driver/Src/stm32l0xx_hal_rtc_ex.c ****   * @param  TimeStampEdge: Specifies the pin edge on which the TimeStamp is
 212:Drivers/STM32L0xx_HAL_Driver/Src/stm32l0xx_hal_rtc_ex.c ****   *         activated.
 213:Drivers/STM32L0xx_HAL_Driver/Src/stm32l0xx_hal_rtc_ex.c ****   *          This parameter can be one of the following values:
 214:Drivers/STM32L0xx_HAL_Driver/Src/stm32l0xx_hal_rtc_ex.c ****   *             @arg RTC_TIMESTAMPEDGE_RISING: the Time stamp event occurs on the  
 215:Drivers/STM32L0xx_HAL_Driver/Src/stm32l0xx_hal_rtc_ex.c ****   *                                        rising edge of the related pin.
 216:Drivers/STM32L0xx_HAL_Driver/Src/stm32l0xx_hal_rtc_ex.c ****   *             @arg RTC_TIMESTAMPEDGE_FALLING: the Time stamp event occurs on the 
 217:Drivers/STM32L0xx_HAL_Driver/Src/stm32l0xx_hal_rtc_ex.c ****   *                                         falling edge of the related pin.
 218:Drivers/STM32L0xx_HAL_Driver/Src/stm32l0xx_hal_rtc_ex.c ****   * @param  RTC_TimeStampPin: Specifies the RTC TimeStamp Pin.
 219:Drivers/STM32L0xx_HAL_Driver/Src/stm32l0xx_hal_rtc_ex.c ****   *          This parameter can be one of the following values:
 220:Drivers/STM32L0xx_HAL_Driver/Src/stm32l0xx_hal_rtc_ex.c ****   *             @arg RTC_TIMESTAMPPIN_DEFAULT: PC13 is selected as RTC TimeStamp Pin on STM32L05x/6
 221:Drivers/STM32L0xx_HAL_Driver/Src/stm32l0xx_hal_rtc_ex.c ****   *                                            and PA2 on STM32L03x/4x/2x/1x.
 222:Drivers/STM32L0xx_HAL_Driver/Src/stm32l0xx_hal_rtc_ex.c ****   * @retval HAL status
 223:Drivers/STM32L0xx_HAL_Driver/Src/stm32l0xx_hal_rtc_ex.c ****   */
 224:Drivers/STM32L0xx_HAL_Driver/Src/stm32l0xx_hal_rtc_ex.c **** HAL_StatusTypeDef HAL_RTCEx_SetTimeStamp_IT(RTC_HandleTypeDef *hrtc, uint32_t TimeStampEdge, uint32
 225:Drivers/STM32L0xx_HAL_Driver/Src/stm32l0xx_hal_rtc_ex.c **** {
 116              		.loc 1 225 0
 117              		.cfi_startproc
 118              	.LVL10:
 119 0000 F0B5     		push	{r4, r5, r6, r7, lr}
ARM GAS  /tmp/ccZ63Pwo.s 			page 7


 120              	.LCFI1:
 121              		.cfi_def_cfa_offset 20
 122              		.cfi_offset 4, -20
 123              		.cfi_offset 5, -16
 124              		.cfi_offset 6, -12
 125              		.cfi_offset 7, -8
 126              		.cfi_offset 14, -4
 127              	.LVL11:
 226:Drivers/STM32L0xx_HAL_Driver/Src/stm32l0xx_hal_rtc_ex.c ****   uint32_t tmpreg = 0U;
 227:Drivers/STM32L0xx_HAL_Driver/Src/stm32l0xx_hal_rtc_ex.c **** 
 228:Drivers/STM32L0xx_HAL_Driver/Src/stm32l0xx_hal_rtc_ex.c ****   /* Check the parameters */
 229:Drivers/STM32L0xx_HAL_Driver/Src/stm32l0xx_hal_rtc_ex.c ****   assert_param(IS_TIMESTAMP_EDGE(TimeStampEdge));
 230:Drivers/STM32L0xx_HAL_Driver/Src/stm32l0xx_hal_rtc_ex.c ****   assert_param(IS_RTC_TIMESTAMP_PIN(RTC_TimeStampPin));
 231:Drivers/STM32L0xx_HAL_Driver/Src/stm32l0xx_hal_rtc_ex.c **** 
 232:Drivers/STM32L0xx_HAL_Driver/Src/stm32l0xx_hal_rtc_ex.c ****   /* Process Locked */ 
 233:Drivers/STM32L0xx_HAL_Driver/Src/stm32l0xx_hal_rtc_ex.c ****   __HAL_LOCK(hrtc);
 128              		.loc 1 233 0
 129 0002 2023     		mov	r3, #32
 130 0004 C35C     		ldrb	r3, [r0, r3]
 131 0006 012B     		cmp	r3, #1
 132 0008 2ED0     		beq	.L8
 133              		.loc 1 233 0 is_stmt 0 discriminator 2
 134 000a 2024     		mov	r4, #32
 135 000c 0126     		mov	r6, #1
 136 000e 0655     		strb	r6, [r0, r4]
 234:Drivers/STM32L0xx_HAL_Driver/Src/stm32l0xx_hal_rtc_ex.c **** 
 235:Drivers/STM32L0xx_HAL_Driver/Src/stm32l0xx_hal_rtc_ex.c ****   hrtc->State = HAL_RTC_STATE_BUSY;
 137              		.loc 1 235 0 is_stmt 1 discriminator 2
 138 0010 2125     		mov	r5, #33
 139 0012 0223     		mov	r3, #2
 140 0014 4355     		strb	r3, [r0, r5]
 236:Drivers/STM32L0xx_HAL_Driver/Src/stm32l0xx_hal_rtc_ex.c **** 
 237:Drivers/STM32L0xx_HAL_Driver/Src/stm32l0xx_hal_rtc_ex.c ****   /* Get the RTC_CR register and clear the bits to be configured */
 238:Drivers/STM32L0xx_HAL_Driver/Src/stm32l0xx_hal_rtc_ex.c ****   tmpreg = (uint32_t)(hrtc->Instance->CR & (uint32_t)~(RTC_CR_TSEDGE | RTC_CR_TSE));
 141              		.loc 1 238 0 discriminator 2
 142 0016 0268     		ldr	r2, [r0]
 143              	.LVL12:
 144 0018 9768     		ldr	r7, [r2, #8]
 145 001a 144B     		ldr	r3, .L9
 146 001c 3B40     		and	r3, r7
 147              	.LVL13:
 239:Drivers/STM32L0xx_HAL_Driver/Src/stm32l0xx_hal_rtc_ex.c **** 
 240:Drivers/STM32L0xx_HAL_Driver/Src/stm32l0xx_hal_rtc_ex.c ****   tmpreg |= TimeStampEdge;
 148              		.loc 1 240 0 discriminator 2
 149 001e 1943     		orr	r1, r3
 150              	.LVL14:
 241:Drivers/STM32L0xx_HAL_Driver/Src/stm32l0xx_hal_rtc_ex.c **** 
 242:Drivers/STM32L0xx_HAL_Driver/Src/stm32l0xx_hal_rtc_ex.c ****   /* Disable the write protection for RTC registers */
 243:Drivers/STM32L0xx_HAL_Driver/Src/stm32l0xx_hal_rtc_ex.c ****   __HAL_RTC_WRITEPROTECTION_DISABLE(hrtc);
 151              		.loc 1 243 0 discriminator 2
 152 0020 CA23     		mov	r3, #202
 153 0022 5362     		str	r3, [r2, #36]
 154 0024 0368     		ldr	r3, [r0]
 155 0026 5322     		mov	r2, #83
 156 0028 5A62     		str	r2, [r3, #36]
 244:Drivers/STM32L0xx_HAL_Driver/Src/stm32l0xx_hal_rtc_ex.c **** 
 245:Drivers/STM32L0xx_HAL_Driver/Src/stm32l0xx_hal_rtc_ex.c ****   /* Configure the Time Stamp TSEDGE and Enable bits */
ARM GAS  /tmp/ccZ63Pwo.s 			page 8


 246:Drivers/STM32L0xx_HAL_Driver/Src/stm32l0xx_hal_rtc_ex.c ****   hrtc->Instance->CR = (uint32_t)tmpreg;
 157              		.loc 1 246 0 discriminator 2
 158 002a 0368     		ldr	r3, [r0]
 159 002c 9960     		str	r1, [r3, #8]
 247:Drivers/STM32L0xx_HAL_Driver/Src/stm32l0xx_hal_rtc_ex.c **** 
 248:Drivers/STM32L0xx_HAL_Driver/Src/stm32l0xx_hal_rtc_ex.c ****   __HAL_RTC_TIMESTAMP_ENABLE(hrtc);
 160              		.loc 1 248 0 discriminator 2
 161 002e 0268     		ldr	r2, [r0]
 162 0030 9368     		ldr	r3, [r2, #8]
 163 0032 8021     		mov	r1, #128
 164              	.LVL15:
 165 0034 0901     		lsl	r1, r1, #4
 166 0036 0B43     		orr	r3, r1
 167 0038 9360     		str	r3, [r2, #8]
 249:Drivers/STM32L0xx_HAL_Driver/Src/stm32l0xx_hal_rtc_ex.c **** 
 250:Drivers/STM32L0xx_HAL_Driver/Src/stm32l0xx_hal_rtc_ex.c ****   /* Enable IT timestamp */
 251:Drivers/STM32L0xx_HAL_Driver/Src/stm32l0xx_hal_rtc_ex.c ****   __HAL_RTC_TIMESTAMP_ENABLE_IT(hrtc,RTC_IT_TS);
 168              		.loc 1 251 0 discriminator 2
 169 003a 0268     		ldr	r2, [r0]
 170 003c 9368     		ldr	r3, [r2, #8]
 171 003e 8021     		mov	r1, #128
 172 0040 0902     		lsl	r1, r1, #8
 173 0042 0B43     		orr	r3, r1
 174 0044 9360     		str	r3, [r2, #8]
 252:Drivers/STM32L0xx_HAL_Driver/Src/stm32l0xx_hal_rtc_ex.c **** 
 253:Drivers/STM32L0xx_HAL_Driver/Src/stm32l0xx_hal_rtc_ex.c ****   /* RTC timestamp Interrupt Configuration: EXTI configuration */
 254:Drivers/STM32L0xx_HAL_Driver/Src/stm32l0xx_hal_rtc_ex.c ****   __HAL_RTC_TAMPER_TIMESTAMP_EXTI_ENABLE_IT();
 175              		.loc 1 254 0 discriminator 2
 176 0046 0A4B     		ldr	r3, .L9+4
 177 0048 1968     		ldr	r1, [r3]
 178 004a 8027     		mov	r7, #128
 179              	.LVL16:
 180 004c 3F03     		lsl	r7, r7, #12
 181 004e 3943     		orr	r1, r7
 182 0050 1960     		str	r1, [r3]
 255:Drivers/STM32L0xx_HAL_Driver/Src/stm32l0xx_hal_rtc_ex.c **** 
 256:Drivers/STM32L0xx_HAL_Driver/Src/stm32l0xx_hal_rtc_ex.c ****   __HAL_RTC_TAMPER_TIMESTAMP_EXTI_ENABLE_RISING_EDGE();
 183              		.loc 1 256 0 discriminator 2
 184 0052 9A68     		ldr	r2, [r3, #8]
 185 0054 3A43     		orr	r2, r7
 186 0056 9A60     		str	r2, [r3, #8]
 257:Drivers/STM32L0xx_HAL_Driver/Src/stm32l0xx_hal_rtc_ex.c **** 
 258:Drivers/STM32L0xx_HAL_Driver/Src/stm32l0xx_hal_rtc_ex.c ****   /* Enable the write protection for RTC registers */
 259:Drivers/STM32L0xx_HAL_Driver/Src/stm32l0xx_hal_rtc_ex.c ****   __HAL_RTC_WRITEPROTECTION_ENABLE(hrtc);
 187              		.loc 1 259 0 discriminator 2
 188 0058 0368     		ldr	r3, [r0]
 189 005a FF22     		mov	r2, #255
 190 005c 5A62     		str	r2, [r3, #36]
 260:Drivers/STM32L0xx_HAL_Driver/Src/stm32l0xx_hal_rtc_ex.c **** 
 261:Drivers/STM32L0xx_HAL_Driver/Src/stm32l0xx_hal_rtc_ex.c ****   hrtc->State = HAL_RTC_STATE_READY;
 191              		.loc 1 261 0 discriminator 2
 192 005e 4655     		strb	r6, [r0, r5]
 262:Drivers/STM32L0xx_HAL_Driver/Src/stm32l0xx_hal_rtc_ex.c **** 
 263:Drivers/STM32L0xx_HAL_Driver/Src/stm32l0xx_hal_rtc_ex.c ****   /* Process Unlocked */
 264:Drivers/STM32L0xx_HAL_Driver/Src/stm32l0xx_hal_rtc_ex.c ****   __HAL_UNLOCK(hrtc);
 193              		.loc 1 264 0 discriminator 2
 194 0060 0023     		mov	r3, #0
ARM GAS  /tmp/ccZ63Pwo.s 			page 9


 195 0062 0355     		strb	r3, [r0, r4]
 265:Drivers/STM32L0xx_HAL_Driver/Src/stm32l0xx_hal_rtc_ex.c **** 
 266:Drivers/STM32L0xx_HAL_Driver/Src/stm32l0xx_hal_rtc_ex.c ****   return HAL_OK;
 196              		.loc 1 266 0 discriminator 2
 197 0064 0020     		mov	r0, #0
 198              	.LVL17:
 199 0066 00E0     		b	.L7
 200              	.LVL18:
 201              	.L8:
 233:Drivers/STM32L0xx_HAL_Driver/Src/stm32l0xx_hal_rtc_ex.c **** 
 202              		.loc 1 233 0
 203 0068 0220     		mov	r0, #2
 204              	.LVL19:
 205              	.L7:
 267:Drivers/STM32L0xx_HAL_Driver/Src/stm32l0xx_hal_rtc_ex.c **** }
 206              		.loc 1 267 0
 207              		@ sp needed
 208 006a F0BD     		pop	{r4, r5, r6, r7, pc}
 209              	.L10:
 210              		.align	2
 211              	.L9:
 212 006c F7F7FFFF 		.word	-2057
 213 0070 00040140 		.word	1073808384
 214              		.cfi_endproc
 215              	.LFE37:
 217              		.section	.text.HAL_RTCEx_DeactivateTimeStamp,"ax",%progbits
 218              		.align	2
 219              		.global	HAL_RTCEx_DeactivateTimeStamp
 220              		.code	16
 221              		.thumb_func
 223              	HAL_RTCEx_DeactivateTimeStamp:
 224              	.LFB38:
 268:Drivers/STM32L0xx_HAL_Driver/Src/stm32l0xx_hal_rtc_ex.c **** 
 269:Drivers/STM32L0xx_HAL_Driver/Src/stm32l0xx_hal_rtc_ex.c **** /**
 270:Drivers/STM32L0xx_HAL_Driver/Src/stm32l0xx_hal_rtc_ex.c ****   * @brief  Deactivate TimeStamp.
 271:Drivers/STM32L0xx_HAL_Driver/Src/stm32l0xx_hal_rtc_ex.c ****   * @param  hrtc: RTC handle
 272:Drivers/STM32L0xx_HAL_Driver/Src/stm32l0xx_hal_rtc_ex.c ****   * @retval HAL status
 273:Drivers/STM32L0xx_HAL_Driver/Src/stm32l0xx_hal_rtc_ex.c ****   */
 274:Drivers/STM32L0xx_HAL_Driver/Src/stm32l0xx_hal_rtc_ex.c **** HAL_StatusTypeDef HAL_RTCEx_DeactivateTimeStamp(RTC_HandleTypeDef *hrtc)
 275:Drivers/STM32L0xx_HAL_Driver/Src/stm32l0xx_hal_rtc_ex.c **** {
 225              		.loc 1 275 0
 226              		.cfi_startproc
 227              	.LVL20:
 228 0000 70B5     		push	{r4, r5, r6, lr}
 229              	.LCFI2:
 230              		.cfi_def_cfa_offset 16
 231              		.cfi_offset 4, -16
 232              		.cfi_offset 5, -12
 233              		.cfi_offset 6, -8
 234              		.cfi_offset 14, -4
 235              	.LVL21:
 276:Drivers/STM32L0xx_HAL_Driver/Src/stm32l0xx_hal_rtc_ex.c ****   uint32_t tmpreg = 0U;
 277:Drivers/STM32L0xx_HAL_Driver/Src/stm32l0xx_hal_rtc_ex.c **** 
 278:Drivers/STM32L0xx_HAL_Driver/Src/stm32l0xx_hal_rtc_ex.c ****   /* Process Locked */
 279:Drivers/STM32L0xx_HAL_Driver/Src/stm32l0xx_hal_rtc_ex.c ****   __HAL_LOCK(hrtc);
 236              		.loc 1 279 0
 237 0002 2023     		mov	r3, #32
ARM GAS  /tmp/ccZ63Pwo.s 			page 10


 238 0004 C35C     		ldrb	r3, [r0, r3]
 239 0006 012B     		cmp	r3, #1
 240 0008 1DD0     		beq	.L13
 241              		.loc 1 279 0 is_stmt 0 discriminator 2
 242 000a 2022     		mov	r2, #32
 243 000c 0124     		mov	r4, #1
 244 000e 8454     		strb	r4, [r0, r2]
 280:Drivers/STM32L0xx_HAL_Driver/Src/stm32l0xx_hal_rtc_ex.c **** 
 281:Drivers/STM32L0xx_HAL_Driver/Src/stm32l0xx_hal_rtc_ex.c ****   hrtc->State = HAL_RTC_STATE_BUSY;
 245              		.loc 1 281 0 is_stmt 1 discriminator 2
 246 0010 2121     		mov	r1, #33
 247 0012 0223     		mov	r3, #2
 248 0014 4354     		strb	r3, [r0, r1]
 282:Drivers/STM32L0xx_HAL_Driver/Src/stm32l0xx_hal_rtc_ex.c **** 
 283:Drivers/STM32L0xx_HAL_Driver/Src/stm32l0xx_hal_rtc_ex.c ****   /* Disable the write protection for RTC registers */
 284:Drivers/STM32L0xx_HAL_Driver/Src/stm32l0xx_hal_rtc_ex.c ****   __HAL_RTC_WRITEPROTECTION_DISABLE(hrtc);
 249              		.loc 1 284 0 discriminator 2
 250 0016 0368     		ldr	r3, [r0]
 251 0018 CA25     		mov	r5, #202
 252 001a 5D62     		str	r5, [r3, #36]
 253 001c 0368     		ldr	r3, [r0]
 254 001e 773D     		sub	r5, r5, #119
 255 0020 5D62     		str	r5, [r3, #36]
 285:Drivers/STM32L0xx_HAL_Driver/Src/stm32l0xx_hal_rtc_ex.c **** 
 286:Drivers/STM32L0xx_HAL_Driver/Src/stm32l0xx_hal_rtc_ex.c ****   /* In case of interrupt mode is used, the interrupt source must disabled */
 287:Drivers/STM32L0xx_HAL_Driver/Src/stm32l0xx_hal_rtc_ex.c ****   __HAL_RTC_TIMESTAMP_DISABLE_IT(hrtc, RTC_IT_TS);
 256              		.loc 1 287 0 discriminator 2
 257 0022 0568     		ldr	r5, [r0]
 258 0024 AE68     		ldr	r6, [r5, #8]
 259 0026 094B     		ldr	r3, .L14
 260 0028 3340     		and	r3, r6
 261 002a AB60     		str	r3, [r5, #8]
 288:Drivers/STM32L0xx_HAL_Driver/Src/stm32l0xx_hal_rtc_ex.c **** 
 289:Drivers/STM32L0xx_HAL_Driver/Src/stm32l0xx_hal_rtc_ex.c ****   /* Get the RTC_CR register and clear the bits to be configured */
 290:Drivers/STM32L0xx_HAL_Driver/Src/stm32l0xx_hal_rtc_ex.c ****   tmpreg = (uint32_t)(hrtc->Instance->CR & (uint32_t)~(RTC_CR_TSEDGE | RTC_CR_TSE));
 262              		.loc 1 290 0 discriminator 2
 263 002c 0568     		ldr	r5, [r0]
 264 002e AE68     		ldr	r6, [r5, #8]
 265 0030 074B     		ldr	r3, .L14+4
 266 0032 3340     		and	r3, r6
 267              	.LVL22:
 291:Drivers/STM32L0xx_HAL_Driver/Src/stm32l0xx_hal_rtc_ex.c **** 
 292:Drivers/STM32L0xx_HAL_Driver/Src/stm32l0xx_hal_rtc_ex.c ****   /* Configure the Time Stamp TSEDGE and Enable bits */
 293:Drivers/STM32L0xx_HAL_Driver/Src/stm32l0xx_hal_rtc_ex.c ****   hrtc->Instance->CR = (uint32_t)tmpreg;
 268              		.loc 1 293 0 discriminator 2
 269 0034 AB60     		str	r3, [r5, #8]
 294:Drivers/STM32L0xx_HAL_Driver/Src/stm32l0xx_hal_rtc_ex.c **** 
 295:Drivers/STM32L0xx_HAL_Driver/Src/stm32l0xx_hal_rtc_ex.c ****   /* Enable the write protection for RTC registers */
 296:Drivers/STM32L0xx_HAL_Driver/Src/stm32l0xx_hal_rtc_ex.c ****   __HAL_RTC_WRITEPROTECTION_ENABLE(hrtc);
 270              		.loc 1 296 0 discriminator 2
 271 0036 0368     		ldr	r3, [r0]
 272              	.LVL23:
 273 0038 FF25     		mov	r5, #255
 274              	.LVL24:
 275 003a 5D62     		str	r5, [r3, #36]
 297:Drivers/STM32L0xx_HAL_Driver/Src/stm32l0xx_hal_rtc_ex.c **** 
 298:Drivers/STM32L0xx_HAL_Driver/Src/stm32l0xx_hal_rtc_ex.c ****   hrtc->State = HAL_RTC_STATE_READY;
ARM GAS  /tmp/ccZ63Pwo.s 			page 11


 276              		.loc 1 298 0 discriminator 2
 277 003c 4454     		strb	r4, [r0, r1]
 299:Drivers/STM32L0xx_HAL_Driver/Src/stm32l0xx_hal_rtc_ex.c **** 
 300:Drivers/STM32L0xx_HAL_Driver/Src/stm32l0xx_hal_rtc_ex.c ****   /* Process Unlocked */
 301:Drivers/STM32L0xx_HAL_Driver/Src/stm32l0xx_hal_rtc_ex.c ****   __HAL_UNLOCK(hrtc);
 278              		.loc 1 301 0 discriminator 2
 279 003e 0023     		mov	r3, #0
 280 0040 8354     		strb	r3, [r0, r2]
 302:Drivers/STM32L0xx_HAL_Driver/Src/stm32l0xx_hal_rtc_ex.c **** 
 303:Drivers/STM32L0xx_HAL_Driver/Src/stm32l0xx_hal_rtc_ex.c ****   return HAL_OK;
 281              		.loc 1 303 0 discriminator 2
 282 0042 0020     		mov	r0, #0
 283              	.LVL25:
 284 0044 00E0     		b	.L12
 285              	.LVL26:
 286              	.L13:
 279:Drivers/STM32L0xx_HAL_Driver/Src/stm32l0xx_hal_rtc_ex.c **** 
 287              		.loc 1 279 0
 288 0046 0220     		mov	r0, #2
 289              	.LVL27:
 290              	.L12:
 304:Drivers/STM32L0xx_HAL_Driver/Src/stm32l0xx_hal_rtc_ex.c **** }
 291              		.loc 1 304 0
 292              		@ sp needed
 293 0048 70BD     		pop	{r4, r5, r6, pc}
 294              	.L15:
 295 004a C046     		.align	2
 296              	.L14:
 297 004c FF7FFFFF 		.word	-32769
 298 0050 F7F7FFFF 		.word	-2057
 299              		.cfi_endproc
 300              	.LFE38:
 302              		.section	.text.HAL_RTCEx_GetTimeStamp,"ax",%progbits
 303              		.align	2
 304              		.global	HAL_RTCEx_GetTimeStamp
 305              		.code	16
 306              		.thumb_func
 308              	HAL_RTCEx_GetTimeStamp:
 309              	.LFB39:
 305:Drivers/STM32L0xx_HAL_Driver/Src/stm32l0xx_hal_rtc_ex.c **** 
 306:Drivers/STM32L0xx_HAL_Driver/Src/stm32l0xx_hal_rtc_ex.c **** /**
 307:Drivers/STM32L0xx_HAL_Driver/Src/stm32l0xx_hal_rtc_ex.c ****   * @brief  Get the RTC TimeStamp value.
 308:Drivers/STM32L0xx_HAL_Driver/Src/stm32l0xx_hal_rtc_ex.c ****   * @param  hrtc: RTC handle
 309:Drivers/STM32L0xx_HAL_Driver/Src/stm32l0xx_hal_rtc_ex.c **** 
 310:Drivers/STM32L0xx_HAL_Driver/Src/stm32l0xx_hal_rtc_ex.c ****   * @param  sTimeStamp: Pointer to Time structure
 311:Drivers/STM32L0xx_HAL_Driver/Src/stm32l0xx_hal_rtc_ex.c ****   * @param  sTimeStampDate: Pointer to Date structure  
 312:Drivers/STM32L0xx_HAL_Driver/Src/stm32l0xx_hal_rtc_ex.c ****   * @param  Format: specifies the format of the entered parameters.
 313:Drivers/STM32L0xx_HAL_Driver/Src/stm32l0xx_hal_rtc_ex.c ****   *          This parameter can be one of the following values:
 314:Drivers/STM32L0xx_HAL_Driver/Src/stm32l0xx_hal_rtc_ex.c ****   *             @arg RTC_FORMAT_BIN: Binary data format 
 315:Drivers/STM32L0xx_HAL_Driver/Src/stm32l0xx_hal_rtc_ex.c ****   *             @arg RTC_FORMAT_BCD: BCD data format
 316:Drivers/STM32L0xx_HAL_Driver/Src/stm32l0xx_hal_rtc_ex.c ****   * @retval HAL status
 317:Drivers/STM32L0xx_HAL_Driver/Src/stm32l0xx_hal_rtc_ex.c ****   */
 318:Drivers/STM32L0xx_HAL_Driver/Src/stm32l0xx_hal_rtc_ex.c **** HAL_StatusTypeDef HAL_RTCEx_GetTimeStamp(RTC_HandleTypeDef *hrtc, RTC_TimeTypeDef* sTimeStamp, RTC_
 319:Drivers/STM32L0xx_HAL_Driver/Src/stm32l0xx_hal_rtc_ex.c **** {
 310              		.loc 1 319 0
 311              		.cfi_startproc
 312              	.LVL28:
ARM GAS  /tmp/ccZ63Pwo.s 			page 12


 313 0000 70B5     		push	{r4, r5, r6, lr}
 314              	.LCFI3:
 315              		.cfi_def_cfa_offset 16
 316              		.cfi_offset 4, -16
 317              		.cfi_offset 5, -12
 318              		.cfi_offset 6, -8
 319              		.cfi_offset 14, -4
 320 0002 061C     		mov	r6, r0
 321 0004 0C1C     		mov	r4, r1
 322 0006 151C     		mov	r5, r2
 323              	.LVL29:
 320:Drivers/STM32L0xx_HAL_Driver/Src/stm32l0xx_hal_rtc_ex.c ****   uint32_t tmptime = 0U, tmpdate = 0U;
 321:Drivers/STM32L0xx_HAL_Driver/Src/stm32l0xx_hal_rtc_ex.c **** 
 322:Drivers/STM32L0xx_HAL_Driver/Src/stm32l0xx_hal_rtc_ex.c ****   /* Check the parameters */
 323:Drivers/STM32L0xx_HAL_Driver/Src/stm32l0xx_hal_rtc_ex.c ****   assert_param(IS_RTC_FORMAT(Format));
 324:Drivers/STM32L0xx_HAL_Driver/Src/stm32l0xx_hal_rtc_ex.c **** 
 325:Drivers/STM32L0xx_HAL_Driver/Src/stm32l0xx_hal_rtc_ex.c ****   /* Get the TimeStamp time and date registers values */
 326:Drivers/STM32L0xx_HAL_Driver/Src/stm32l0xx_hal_rtc_ex.c ****   tmptime = (uint32_t)(hrtc->Instance->TSTR & RTC_TR_RESERVED_MASK);
 324              		.loc 1 326 0
 325 0008 0268     		ldr	r2, [r0]
 326              	.LVL30:
 327 000a 106B     		ldr	r0, [r2, #48]
 328              	.LVL31:
 327:Drivers/STM32L0xx_HAL_Driver/Src/stm32l0xx_hal_rtc_ex.c ****   tmpdate = (uint32_t)(hrtc->Instance->TSDR & RTC_DR_RESERVED_MASK);
 329              		.loc 1 327 0
 330 000c 526B     		ldr	r2, [r2, #52]
 331              	.LVL32:
 328:Drivers/STM32L0xx_HAL_Driver/Src/stm32l0xx_hal_rtc_ex.c **** 
 329:Drivers/STM32L0xx_HAL_Driver/Src/stm32l0xx_hal_rtc_ex.c ****   /* Fill the Time structure fields with the read parameters */
 330:Drivers/STM32L0xx_HAL_Driver/Src/stm32l0xx_hal_rtc_ex.c ****   sTimeStamp->Hours = (uint8_t)((tmptime & (RTC_TR_HT | RTC_TR_HU)) >> 16U);
 332              		.loc 1 330 0
 333 000e 8102     		lsl	r1, r0, #10
 334              	.LVL33:
 335 0010 890E     		lsr	r1, r1, #26
 336 0012 2170     		strb	r1, [r4]
 331:Drivers/STM32L0xx_HAL_Driver/Src/stm32l0xx_hal_rtc_ex.c ****   sTimeStamp->Minutes = (uint8_t)((tmptime & (RTC_TR_MNT | RTC_TR_MNU)) >> 8U);
 337              		.loc 1 331 0
 338 0014 4104     		lsl	r1, r0, #17
 339 0016 490E     		lsr	r1, r1, #25
 340 0018 6170     		strb	r1, [r4, #1]
 332:Drivers/STM32L0xx_HAL_Driver/Src/stm32l0xx_hal_rtc_ex.c ****   sTimeStamp->Seconds = (uint8_t)(tmptime & (RTC_TR_ST | RTC_TR_SU));
 341              		.loc 1 332 0
 342 001a 7F21     		mov	r1, #127
 343 001c 0140     		and	r1, r0
 344 001e A170     		strb	r1, [r4, #2]
 333:Drivers/STM32L0xx_HAL_Driver/Src/stm32l0xx_hal_rtc_ex.c ****   sTimeStamp->TimeFormat = (uint8_t)((tmptime & (RTC_TR_PM)) >> 16U);
 345              		.loc 1 333 0
 346 0020 8021     		mov	r1, #128
 347 0022 C903     		lsl	r1, r1, #15
 348 0024 0140     		and	r1, r0
 349 0026 090C     		lsr	r1, r1, #16
 350 0028 E170     		strb	r1, [r4, #3]
 334:Drivers/STM32L0xx_HAL_Driver/Src/stm32l0xx_hal_rtc_ex.c ****   sTimeStamp->SubSeconds = (uint32_t) hrtc->Instance->TSSSR;
 351              		.loc 1 334 0
 352 002a 3168     		ldr	r1, [r6]
 353 002c 896B     		ldr	r1, [r1, #56]
 354 002e 6160     		str	r1, [r4, #4]
ARM GAS  /tmp/ccZ63Pwo.s 			page 13


 335:Drivers/STM32L0xx_HAL_Driver/Src/stm32l0xx_hal_rtc_ex.c **** 
 336:Drivers/STM32L0xx_HAL_Driver/Src/stm32l0xx_hal_rtc_ex.c ****   /* Fill the Date structure fields with the read parameters */
 337:Drivers/STM32L0xx_HAL_Driver/Src/stm32l0xx_hal_rtc_ex.c ****   sTimeStampDate->Year = 0U;
 355              		.loc 1 337 0
 356 0030 0021     		mov	r1, #0
 357 0032 E970     		strb	r1, [r5, #3]
 338:Drivers/STM32L0xx_HAL_Driver/Src/stm32l0xx_hal_rtc_ex.c ****   sTimeStampDate->Month = (uint8_t)((tmpdate & (RTC_DR_MT | RTC_DR_MU)) >> 8U);
 358              		.loc 1 338 0
 359 0034 D104     		lsl	r1, r2, #19
 360 0036 C90E     		lsr	r1, r1, #27
 361 0038 6970     		strb	r1, [r5, #1]
 339:Drivers/STM32L0xx_HAL_Driver/Src/stm32l0xx_hal_rtc_ex.c ****   sTimeStampDate->Date = (uint8_t)(tmpdate & (RTC_DR_DT | RTC_DR_DU));
 362              		.loc 1 339 0
 363 003a 3F21     		mov	r1, #63
 364 003c 1140     		and	r1, r2
 365 003e A970     		strb	r1, [r5, #2]
 340:Drivers/STM32L0xx_HAL_Driver/Src/stm32l0xx_hal_rtc_ex.c ****   sTimeStampDate->WeekDay = (uint8_t)((tmpdate & (RTC_DR_WDU)) >> 13U);
 366              		.loc 1 340 0
 367 0040 1204     		lsl	r2, r2, #16
 368              	.LVL34:
 369 0042 520F     		lsr	r2, r2, #29
 370 0044 2A70     		strb	r2, [r5]
 341:Drivers/STM32L0xx_HAL_Driver/Src/stm32l0xx_hal_rtc_ex.c **** 
 342:Drivers/STM32L0xx_HAL_Driver/Src/stm32l0xx_hal_rtc_ex.c ****   /* Check the input parameters format */
 343:Drivers/STM32L0xx_HAL_Driver/Src/stm32l0xx_hal_rtc_ex.c ****   if(Format == RTC_FORMAT_BIN)
 371              		.loc 1 343 0
 372 0046 002B     		cmp	r3, #0
 373 0048 17D1     		bne	.L17
 344:Drivers/STM32L0xx_HAL_Driver/Src/stm32l0xx_hal_rtc_ex.c ****   {
 345:Drivers/STM32L0xx_HAL_Driver/Src/stm32l0xx_hal_rtc_ex.c ****     /* Convert the TimeStamp structure parameters to Binary format */
 346:Drivers/STM32L0xx_HAL_Driver/Src/stm32l0xx_hal_rtc_ex.c ****     sTimeStamp->Hours = (uint8_t)RTC_Bcd2ToByte(sTimeStamp->Hours);
 374              		.loc 1 346 0
 375 004a 2078     		ldrb	r0, [r4]
 376              	.LVL35:
 377 004c FFF7FEFF 		bl	RTC_Bcd2ToByte
 378              	.LVL36:
 379 0050 2070     		strb	r0, [r4]
 347:Drivers/STM32L0xx_HAL_Driver/Src/stm32l0xx_hal_rtc_ex.c ****     sTimeStamp->Minutes = (uint8_t)RTC_Bcd2ToByte(sTimeStamp->Minutes);
 380              		.loc 1 347 0
 381 0052 6078     		ldrb	r0, [r4, #1]
 382 0054 FFF7FEFF 		bl	RTC_Bcd2ToByte
 383              	.LVL37:
 384 0058 6070     		strb	r0, [r4, #1]
 348:Drivers/STM32L0xx_HAL_Driver/Src/stm32l0xx_hal_rtc_ex.c ****     sTimeStamp->Seconds = (uint8_t)RTC_Bcd2ToByte(sTimeStamp->Seconds);
 385              		.loc 1 348 0
 386 005a A078     		ldrb	r0, [r4, #2]
 387 005c FFF7FEFF 		bl	RTC_Bcd2ToByte
 388              	.LVL38:
 389 0060 A070     		strb	r0, [r4, #2]
 349:Drivers/STM32L0xx_HAL_Driver/Src/stm32l0xx_hal_rtc_ex.c **** 
 350:Drivers/STM32L0xx_HAL_Driver/Src/stm32l0xx_hal_rtc_ex.c ****     /* Convert the DateTimeStamp structure parameters to Binary format */
 351:Drivers/STM32L0xx_HAL_Driver/Src/stm32l0xx_hal_rtc_ex.c ****     sTimeStampDate->Month = (uint8_t)RTC_Bcd2ToByte(sTimeStampDate->Month);
 390              		.loc 1 351 0
 391 0062 6878     		ldrb	r0, [r5, #1]
 392 0064 FFF7FEFF 		bl	RTC_Bcd2ToByte
 393              	.LVL39:
 394 0068 6870     		strb	r0, [r5, #1]
ARM GAS  /tmp/ccZ63Pwo.s 			page 14


 352:Drivers/STM32L0xx_HAL_Driver/Src/stm32l0xx_hal_rtc_ex.c ****     sTimeStampDate->Date = (uint8_t)RTC_Bcd2ToByte(sTimeStampDate->Date);
 395              		.loc 1 352 0
 396 006a A878     		ldrb	r0, [r5, #2]
 397 006c FFF7FEFF 		bl	RTC_Bcd2ToByte
 398              	.LVL40:
 399 0070 A870     		strb	r0, [r5, #2]
 353:Drivers/STM32L0xx_HAL_Driver/Src/stm32l0xx_hal_rtc_ex.c ****     sTimeStampDate->WeekDay = (uint8_t)RTC_Bcd2ToByte(sTimeStampDate->WeekDay);
 400              		.loc 1 353 0
 401 0072 2878     		ldrb	r0, [r5]
 402 0074 FFF7FEFF 		bl	RTC_Bcd2ToByte
 403              	.LVL41:
 404 0078 2870     		strb	r0, [r5]
 405              	.L17:
 354:Drivers/STM32L0xx_HAL_Driver/Src/stm32l0xx_hal_rtc_ex.c ****   }
 355:Drivers/STM32L0xx_HAL_Driver/Src/stm32l0xx_hal_rtc_ex.c **** 
 356:Drivers/STM32L0xx_HAL_Driver/Src/stm32l0xx_hal_rtc_ex.c ****   /* Clear the TIMESTAMP Flag */
 357:Drivers/STM32L0xx_HAL_Driver/Src/stm32l0xx_hal_rtc_ex.c ****   __HAL_RTC_TIMESTAMP_CLEAR_FLAG(hrtc, RTC_FLAG_TSF);
 406              		.loc 1 357 0
 407 007a 3268     		ldr	r2, [r6]
 408 007c D368     		ldr	r3, [r2, #12]
 409 007e FF21     		mov	r1, #255
 410 0080 0B40     		and	r3, r1
 411 0082 0249     		ldr	r1, .L18
 412 0084 0B43     		orr	r3, r1
 413 0086 D360     		str	r3, [r2, #12]
 358:Drivers/STM32L0xx_HAL_Driver/Src/stm32l0xx_hal_rtc_ex.c **** 
 359:Drivers/STM32L0xx_HAL_Driver/Src/stm32l0xx_hal_rtc_ex.c ****   return HAL_OK;
 360:Drivers/STM32L0xx_HAL_Driver/Src/stm32l0xx_hal_rtc_ex.c **** }
 414              		.loc 1 360 0
 415 0088 0020     		mov	r0, #0
 416              		@ sp needed
 417              	.LVL42:
 418              	.LVL43:
 419              	.LVL44:
 420 008a 70BD     		pop	{r4, r5, r6, pc}
 421              	.L19:
 422              		.align	2
 423              	.L18:
 424 008c 7FF7FFFF 		.word	-2177
 425              		.cfi_endproc
 426              	.LFE39:
 428              		.section	.text.HAL_RTCEx_SetTamper,"ax",%progbits
 429              		.align	2
 430              		.global	HAL_RTCEx_SetTamper
 431              		.code	16
 432              		.thumb_func
 434              	HAL_RTCEx_SetTamper:
 435              	.LFB40:
 361:Drivers/STM32L0xx_HAL_Driver/Src/stm32l0xx_hal_rtc_ex.c **** 
 362:Drivers/STM32L0xx_HAL_Driver/Src/stm32l0xx_hal_rtc_ex.c **** /**
 363:Drivers/STM32L0xx_HAL_Driver/Src/stm32l0xx_hal_rtc_ex.c ****   * @brief  Set Tamper
 364:Drivers/STM32L0xx_HAL_Driver/Src/stm32l0xx_hal_rtc_ex.c ****   * @note   By calling this API we disable the tamper interrupt for all tampers.
 365:Drivers/STM32L0xx_HAL_Driver/Src/stm32l0xx_hal_rtc_ex.c ****   * @param  hrtc: RTC handle
 366:Drivers/STM32L0xx_HAL_Driver/Src/stm32l0xx_hal_rtc_ex.c ****   * @param  sTamper: Pointer to Tamper Structure.
 367:Drivers/STM32L0xx_HAL_Driver/Src/stm32l0xx_hal_rtc_ex.c ****   * @retval HAL status
 368:Drivers/STM32L0xx_HAL_Driver/Src/stm32l0xx_hal_rtc_ex.c ****   */
 369:Drivers/STM32L0xx_HAL_Driver/Src/stm32l0xx_hal_rtc_ex.c **** HAL_StatusTypeDef HAL_RTCEx_SetTamper(RTC_HandleTypeDef *hrtc, RTC_TamperTypeDef* sTamper)
ARM GAS  /tmp/ccZ63Pwo.s 			page 15


 370:Drivers/STM32L0xx_HAL_Driver/Src/stm32l0xx_hal_rtc_ex.c **** {
 436              		.loc 1 370 0
 437              		.cfi_startproc
 438              	.LVL45:
 439 0000 30B5     		push	{r4, r5, lr}
 440              	.LCFI4:
 441              		.cfi_def_cfa_offset 12
 442              		.cfi_offset 4, -12
 443              		.cfi_offset 5, -8
 444              		.cfi_offset 14, -4
 445              	.LVL46:
 371:Drivers/STM32L0xx_HAL_Driver/Src/stm32l0xx_hal_rtc_ex.c ****   uint32_t tmpreg = 0U;
 372:Drivers/STM32L0xx_HAL_Driver/Src/stm32l0xx_hal_rtc_ex.c **** 
 373:Drivers/STM32L0xx_HAL_Driver/Src/stm32l0xx_hal_rtc_ex.c ****   /* Check the parameters */
 374:Drivers/STM32L0xx_HAL_Driver/Src/stm32l0xx_hal_rtc_ex.c ****   assert_param( IS_RTC_TAMPER(sTamper->Tamper));
 375:Drivers/STM32L0xx_HAL_Driver/Src/stm32l0xx_hal_rtc_ex.c ****   assert_param( IS_RTC_TAMPER_TRIGGER(sTamper->Trigger));
 376:Drivers/STM32L0xx_HAL_Driver/Src/stm32l0xx_hal_rtc_ex.c ****   assert_param(IS_RTC_TAMPER_ERASE_MODE(sTamper->NoErase));
 377:Drivers/STM32L0xx_HAL_Driver/Src/stm32l0xx_hal_rtc_ex.c ****   assert_param(IS_RTC_TAMPER_MASKFLAG_STATE(sTamper->MaskFlag));
 378:Drivers/STM32L0xx_HAL_Driver/Src/stm32l0xx_hal_rtc_ex.c ****   assert_param(IS_RTC_TAMPER_FILTER(sTamper->Filter));
 379:Drivers/STM32L0xx_HAL_Driver/Src/stm32l0xx_hal_rtc_ex.c ****   assert_param(IS_RTC_TAMPER_SAMPLING_FREQ(sTamper->SamplingFrequency));
 380:Drivers/STM32L0xx_HAL_Driver/Src/stm32l0xx_hal_rtc_ex.c ****   assert_param(IS_RTC_TAMPER_PRECHARGE_DURATION(sTamper->PrechargeDuration));
 381:Drivers/STM32L0xx_HAL_Driver/Src/stm32l0xx_hal_rtc_ex.c ****   assert_param(IS_RTC_TAMPER_PULLUP_STATE(sTamper->TamperPullUp));
 382:Drivers/STM32L0xx_HAL_Driver/Src/stm32l0xx_hal_rtc_ex.c ****   assert_param(IS_RTC_TAMPER_TIMESTAMPONTAMPER_DETECTION(sTamper->TimeStampOnTamperDetection));
 383:Drivers/STM32L0xx_HAL_Driver/Src/stm32l0xx_hal_rtc_ex.c **** 
 384:Drivers/STM32L0xx_HAL_Driver/Src/stm32l0xx_hal_rtc_ex.c ****   /* Process Locked */
 385:Drivers/STM32L0xx_HAL_Driver/Src/stm32l0xx_hal_rtc_ex.c ****   __HAL_LOCK(hrtc);
 446              		.loc 1 385 0
 447 0002 2023     		mov	r3, #32
 448 0004 C35C     		ldrb	r3, [r0, r3]
 449 0006 012B     		cmp	r3, #1
 450 0008 54D0     		beq	.L27
 451              		.loc 1 385 0 is_stmt 0 discriminator 2
 452 000a 0122     		mov	r2, #1
 453 000c 2023     		mov	r3, #32
 454 000e C254     		strb	r2, [r0, r3]
 386:Drivers/STM32L0xx_HAL_Driver/Src/stm32l0xx_hal_rtc_ex.c **** 
 387:Drivers/STM32L0xx_HAL_Driver/Src/stm32l0xx_hal_rtc_ex.c ****   hrtc->State = HAL_RTC_STATE_BUSY;
 455              		.loc 1 387 0 is_stmt 1 discriminator 2
 456 0010 0132     		add	r2, r2, #1
 457 0012 0133     		add	r3, r3, #1
 458 0014 C254     		strb	r2, [r0, r3]
 388:Drivers/STM32L0xx_HAL_Driver/Src/stm32l0xx_hal_rtc_ex.c **** 
 389:Drivers/STM32L0xx_HAL_Driver/Src/stm32l0xx_hal_rtc_ex.c ****   /* Configure the tamper trigger */
 390:Drivers/STM32L0xx_HAL_Driver/Src/stm32l0xx_hal_rtc_ex.c ****   if(sTamper->Trigger != RTC_TAMPERTRIGGER_RISINGEDGE)
 459              		.loc 1 390 0 discriminator 2
 460 0016 8B68     		ldr	r3, [r1, #8]
 461 0018 002B     		cmp	r3, #0
 462 001a 02D0     		beq	.L22
 391:Drivers/STM32L0xx_HAL_Driver/Src/stm32l0xx_hal_rtc_ex.c ****   { 
 392:Drivers/STM32L0xx_HAL_Driver/Src/stm32l0xx_hal_rtc_ex.c ****     sTamper->Trigger = (uint32_t)(sTamper->Tamper << 1U); 
 463              		.loc 1 392 0
 464 001c 0B68     		ldr	r3, [r1]
 465 001e 5B00     		lsl	r3, r3, #1
 466 0020 8B60     		str	r3, [r1, #8]
 467              	.L22:
 393:Drivers/STM32L0xx_HAL_Driver/Src/stm32l0xx_hal_rtc_ex.c ****   }
 394:Drivers/STM32L0xx_HAL_Driver/Src/stm32l0xx_hal_rtc_ex.c **** 
ARM GAS  /tmp/ccZ63Pwo.s 			page 16


 395:Drivers/STM32L0xx_HAL_Driver/Src/stm32l0xx_hal_rtc_ex.c ****   if(sTamper->NoErase != RTC_TAMPER_ERASE_BACKUP_ENABLE)
 468              		.loc 1 395 0
 469 0022 CB68     		ldr	r3, [r1, #12]
 470 0024 002B     		cmp	r3, #0
 471 0026 0ED0     		beq	.L23
 396:Drivers/STM32L0xx_HAL_Driver/Src/stm32l0xx_hal_rtc_ex.c ****   { 
 397:Drivers/STM32L0xx_HAL_Driver/Src/stm32l0xx_hal_rtc_ex.c ****     sTamper->NoErase = 0U;
 472              		.loc 1 397 0
 473 0028 0023     		mov	r3, #0
 474 002a CB60     		str	r3, [r1, #12]
 398:Drivers/STM32L0xx_HAL_Driver/Src/stm32l0xx_hal_rtc_ex.c **** #if defined (STM32L063xx) || defined (STM32L062xx) || defined (STM32L061xx) || \
 399:Drivers/STM32L0xx_HAL_Driver/Src/stm32l0xx_hal_rtc_ex.c ****     defined (STM32L053xx) || defined (STM32L052xx) || defined (STM32L051xx) ||\
 400:Drivers/STM32L0xx_HAL_Driver/Src/stm32l0xx_hal_rtc_ex.c ****     defined (STM32L083xx) || defined (STM32L082xx) || defined (STM32L081xx) || \
 401:Drivers/STM32L0xx_HAL_Driver/Src/stm32l0xx_hal_rtc_ex.c ****     defined (STM32L073xx) || defined (STM32L072xx) || defined (STM32L071xx) || \
 402:Drivers/STM32L0xx_HAL_Driver/Src/stm32l0xx_hal_rtc_ex.c ****     defined (STM32L031xx) || defined (STM32L041xx)
 403:Drivers/STM32L0xx_HAL_Driver/Src/stm32l0xx_hal_rtc_ex.c **** 
 404:Drivers/STM32L0xx_HAL_Driver/Src/stm32l0xx_hal_rtc_ex.c ****     if((sTamper->Tamper & RTC_TAMPER_1) != 0U)
 475              		.loc 1 404 0
 476 002c 0B68     		ldr	r3, [r1]
 477 002e DA07     		lsl	r2, r3, #31
 478 0030 02D5     		bpl	.L24
 405:Drivers/STM32L0xx_HAL_Driver/Src/stm32l0xx_hal_rtc_ex.c ****     {
 406:Drivers/STM32L0xx_HAL_Driver/Src/stm32l0xx_hal_rtc_ex.c ****       sTamper->NoErase |= RTC_TAMPCR_TAMP1NOERASE;
 479              		.loc 1 406 0
 480 0032 8022     		mov	r2, #128
 481 0034 9202     		lsl	r2, r2, #10
 482 0036 CA60     		str	r2, [r1, #12]
 483              	.L24:
 407:Drivers/STM32L0xx_HAL_Driver/Src/stm32l0xx_hal_rtc_ex.c ****     }
 408:Drivers/STM32L0xx_HAL_Driver/Src/stm32l0xx_hal_rtc_ex.c **** #endif /* (STM32L063xx) || (STM32L062xx) || (STM32L061xx) ||
 409:Drivers/STM32L0xx_HAL_Driver/Src/stm32l0xx_hal_rtc_ex.c ****         * (STM32L053xx) || (STM32L052xx) || (STM32L051xx) ||
 410:Drivers/STM32L0xx_HAL_Driver/Src/stm32l0xx_hal_rtc_ex.c ****         * (STM32L083xx) || (STM32L082xx) || (STM32L081xx) ||
 411:Drivers/STM32L0xx_HAL_Driver/Src/stm32l0xx_hal_rtc_ex.c ****         * (STM32L073xx) || (STM32L072xx) || (STM32L071xx) || 
 412:Drivers/STM32L0xx_HAL_Driver/Src/stm32l0xx_hal_rtc_ex.c ****         * (STM32L031xx) || (STM32L041xx)
 413:Drivers/STM32L0xx_HAL_Driver/Src/stm32l0xx_hal_rtc_ex.c ****         */
 414:Drivers/STM32L0xx_HAL_Driver/Src/stm32l0xx_hal_rtc_ex.c **** 
 415:Drivers/STM32L0xx_HAL_Driver/Src/stm32l0xx_hal_rtc_ex.c ****     if((sTamper->Tamper & RTC_TAMPER_2) != 0U)
 484              		.loc 1 415 0
 485 0038 1B07     		lsl	r3, r3, #28
 486 003a 04D5     		bpl	.L23
 416:Drivers/STM32L0xx_HAL_Driver/Src/stm32l0xx_hal_rtc_ex.c ****     {
 417:Drivers/STM32L0xx_HAL_Driver/Src/stm32l0xx_hal_rtc_ex.c ****       sTamper->NoErase |= RTC_TAMPCR_TAMP2NOERASE;
 487              		.loc 1 417 0
 488 003c 8023     		mov	r3, #128
 489 003e 5B03     		lsl	r3, r3, #13
 490 0040 CA68     		ldr	r2, [r1, #12]
 491 0042 1343     		orr	r3, r2
 492 0044 CB60     		str	r3, [r1, #12]
 493              	.L23:
 418:Drivers/STM32L0xx_HAL_Driver/Src/stm32l0xx_hal_rtc_ex.c ****     }
 419:Drivers/STM32L0xx_HAL_Driver/Src/stm32l0xx_hal_rtc_ex.c **** #if defined (STM32L083xx) || defined (STM32L082xx) || defined (STM32L081xx) || \
 420:Drivers/STM32L0xx_HAL_Driver/Src/stm32l0xx_hal_rtc_ex.c ****     defined (STM32L073xx) || defined (STM32L072xx) || defined (STM32L071xx) || \
 421:Drivers/STM32L0xx_HAL_Driver/Src/stm32l0xx_hal_rtc_ex.c ****     defined (STM32L031xx) || defined (STM32L041xx) || defined (STM32L011xx) || defined (STM32L021xx
 422:Drivers/STM32L0xx_HAL_Driver/Src/stm32l0xx_hal_rtc_ex.c **** 
 423:Drivers/STM32L0xx_HAL_Driver/Src/stm32l0xx_hal_rtc_ex.c ****     if((sTamper->Tamper & RTC_TAMPER_3) != 0U)
 424:Drivers/STM32L0xx_HAL_Driver/Src/stm32l0xx_hal_rtc_ex.c ****     {
 425:Drivers/STM32L0xx_HAL_Driver/Src/stm32l0xx_hal_rtc_ex.c ****       sTamper->NoErase |= RTC_TAMPCR_TAMP3NOERASE;
ARM GAS  /tmp/ccZ63Pwo.s 			page 17


 426:Drivers/STM32L0xx_HAL_Driver/Src/stm32l0xx_hal_rtc_ex.c ****     }
 427:Drivers/STM32L0xx_HAL_Driver/Src/stm32l0xx_hal_rtc_ex.c **** 
 428:Drivers/STM32L0xx_HAL_Driver/Src/stm32l0xx_hal_rtc_ex.c **** #endif /* (STM32L083xx) || (STM32L082xx) || (STM32L081xx) ||
 429:Drivers/STM32L0xx_HAL_Driver/Src/stm32l0xx_hal_rtc_ex.c ****         * (STM32L073xx) || (STM32L072xx) || (STM32L071xx) || (STM32L031xx) || (STM32L041xx) || (STM
 430:Drivers/STM32L0xx_HAL_Driver/Src/stm32l0xx_hal_rtc_ex.c ****         */
 431:Drivers/STM32L0xx_HAL_Driver/Src/stm32l0xx_hal_rtc_ex.c ****   }
 432:Drivers/STM32L0xx_HAL_Driver/Src/stm32l0xx_hal_rtc_ex.c **** 
 433:Drivers/STM32L0xx_HAL_Driver/Src/stm32l0xx_hal_rtc_ex.c ****   if(sTamper->MaskFlag != RTC_TAMPERMASK_FLAG_DISABLE)
 494              		.loc 1 433 0
 495 0046 0B69     		ldr	r3, [r1, #16]
 496 0048 002B     		cmp	r3, #0
 497 004a 0ED0     		beq	.L25
 434:Drivers/STM32L0xx_HAL_Driver/Src/stm32l0xx_hal_rtc_ex.c ****   {
 435:Drivers/STM32L0xx_HAL_Driver/Src/stm32l0xx_hal_rtc_ex.c ****     sTamper->MaskFlag = 0U;
 498              		.loc 1 435 0
 499 004c 0023     		mov	r3, #0
 500 004e 0B61     		str	r3, [r1, #16]
 436:Drivers/STM32L0xx_HAL_Driver/Src/stm32l0xx_hal_rtc_ex.c ****     
 437:Drivers/STM32L0xx_HAL_Driver/Src/stm32l0xx_hal_rtc_ex.c **** #if defined (STM32L063xx) || defined (STM32L062xx) || defined (STM32L061xx) || \
 438:Drivers/STM32L0xx_HAL_Driver/Src/stm32l0xx_hal_rtc_ex.c ****     defined (STM32L053xx) || defined (STM32L052xx) || defined (STM32L051xx) ||\
 439:Drivers/STM32L0xx_HAL_Driver/Src/stm32l0xx_hal_rtc_ex.c ****     defined (STM32L083xx) || defined (STM32L082xx) || defined (STM32L081xx) || \
 440:Drivers/STM32L0xx_HAL_Driver/Src/stm32l0xx_hal_rtc_ex.c ****     defined (STM32L073xx) || defined (STM32L072xx) || defined (STM32L071xx) || \
 441:Drivers/STM32L0xx_HAL_Driver/Src/stm32l0xx_hal_rtc_ex.c ****     defined (STM32L031xx) || defined (STM32L041xx)
 442:Drivers/STM32L0xx_HAL_Driver/Src/stm32l0xx_hal_rtc_ex.c **** 
 443:Drivers/STM32L0xx_HAL_Driver/Src/stm32l0xx_hal_rtc_ex.c ****     if((sTamper->Tamper & RTC_TAMPER_1) != 0U)
 501              		.loc 1 443 0
 502 0050 0B68     		ldr	r3, [r1]
 503 0052 DA07     		lsl	r2, r3, #31
 504 0054 02D5     		bpl	.L26
 444:Drivers/STM32L0xx_HAL_Driver/Src/stm32l0xx_hal_rtc_ex.c ****     {
 445:Drivers/STM32L0xx_HAL_Driver/Src/stm32l0xx_hal_rtc_ex.c ****       sTamper->MaskFlag |= RTC_TAMPCR_TAMP1MF;
 505              		.loc 1 445 0
 506 0056 8022     		mov	r2, #128
 507 0058 D202     		lsl	r2, r2, #11
 508 005a 0A61     		str	r2, [r1, #16]
 509              	.L26:
 446:Drivers/STM32L0xx_HAL_Driver/Src/stm32l0xx_hal_rtc_ex.c ****     }
 447:Drivers/STM32L0xx_HAL_Driver/Src/stm32l0xx_hal_rtc_ex.c **** #endif /* (STM32L063xx) || (STM32L062xx) || (STM32L061xx) ||
 448:Drivers/STM32L0xx_HAL_Driver/Src/stm32l0xx_hal_rtc_ex.c ****         * (STM32L053xx) || (STM32L052xx) || (STM32L051xx) ||
 449:Drivers/STM32L0xx_HAL_Driver/Src/stm32l0xx_hal_rtc_ex.c ****         * (STM32L083xx) || (STM32L082xx) || (STM32L081xx) ||
 450:Drivers/STM32L0xx_HAL_Driver/Src/stm32l0xx_hal_rtc_ex.c ****         * (STM32L073xx) || (STM32L072xx) || (STM32L071xx) || 
 451:Drivers/STM32L0xx_HAL_Driver/Src/stm32l0xx_hal_rtc_ex.c ****         * (STM32L031xx) || (STM32L041xx)
 452:Drivers/STM32L0xx_HAL_Driver/Src/stm32l0xx_hal_rtc_ex.c ****         */
 453:Drivers/STM32L0xx_HAL_Driver/Src/stm32l0xx_hal_rtc_ex.c ****   
 454:Drivers/STM32L0xx_HAL_Driver/Src/stm32l0xx_hal_rtc_ex.c ****     if((sTamper->Tamper & RTC_TAMPER_2) != 0U)
 510              		.loc 1 454 0
 511 005c 1B07     		lsl	r3, r3, #28
 512 005e 04D5     		bpl	.L25
 455:Drivers/STM32L0xx_HAL_Driver/Src/stm32l0xx_hal_rtc_ex.c ****     {
 456:Drivers/STM32L0xx_HAL_Driver/Src/stm32l0xx_hal_rtc_ex.c ****       sTamper->MaskFlag |= RTC_TAMPCR_TAMP2MF;
 513              		.loc 1 456 0
 514 0060 8023     		mov	r3, #128
 515 0062 9B03     		lsl	r3, r3, #14
 516 0064 0A69     		ldr	r2, [r1, #16]
 517 0066 1343     		orr	r3, r2
 518 0068 0B61     		str	r3, [r1, #16]
 519              	.L25:
ARM GAS  /tmp/ccZ63Pwo.s 			page 18


 457:Drivers/STM32L0xx_HAL_Driver/Src/stm32l0xx_hal_rtc_ex.c ****     }
 458:Drivers/STM32L0xx_HAL_Driver/Src/stm32l0xx_hal_rtc_ex.c **** #if defined (STM32L083xx) || defined (STM32L082xx) || defined (STM32L081xx) || \
 459:Drivers/STM32L0xx_HAL_Driver/Src/stm32l0xx_hal_rtc_ex.c ****     defined (STM32L073xx) || defined (STM32L072xx) || defined (STM32L071xx) || \
 460:Drivers/STM32L0xx_HAL_Driver/Src/stm32l0xx_hal_rtc_ex.c ****     defined (STM32L031xx) || defined (STM32L041xx) || defined (STM32L011xx) || defined (STM32L021xx
 461:Drivers/STM32L0xx_HAL_Driver/Src/stm32l0xx_hal_rtc_ex.c **** 
 462:Drivers/STM32L0xx_HAL_Driver/Src/stm32l0xx_hal_rtc_ex.c ****     if((sTamper->Tamper & RTC_TAMPER_3) != 0U)
 463:Drivers/STM32L0xx_HAL_Driver/Src/stm32l0xx_hal_rtc_ex.c ****     {
 464:Drivers/STM32L0xx_HAL_Driver/Src/stm32l0xx_hal_rtc_ex.c ****       sTamper->MaskFlag |= RTC_TAMPCR_TAMP3MF;
 465:Drivers/STM32L0xx_HAL_Driver/Src/stm32l0xx_hal_rtc_ex.c ****     }
 466:Drivers/STM32L0xx_HAL_Driver/Src/stm32l0xx_hal_rtc_ex.c **** #endif /* (STM32L083xx) || (STM32L082xx) || (STM32L081xx) || 
 467:Drivers/STM32L0xx_HAL_Driver/Src/stm32l0xx_hal_rtc_ex.c ****         * (STM32L073xx) || (STM32L072xx) || (STM32L071xx) || (STM32L031xx) || (STM32L041xx)|| (STM3
 468:Drivers/STM32L0xx_HAL_Driver/Src/stm32l0xx_hal_rtc_ex.c ****         */
 469:Drivers/STM32L0xx_HAL_Driver/Src/stm32l0xx_hal_rtc_ex.c ****   }
 470:Drivers/STM32L0xx_HAL_Driver/Src/stm32l0xx_hal_rtc_ex.c **** 
 471:Drivers/STM32L0xx_HAL_Driver/Src/stm32l0xx_hal_rtc_ex.c ****   /* Configure the RTC_TAMPCR register */
 472:Drivers/STM32L0xx_HAL_Driver/Src/stm32l0xx_hal_rtc_ex.c ****   tmpreg = (uint32_t)((uint32_t)sTamper->Tamper | (uint32_t)sTamper->Trigger  | (uint32_t)sTamper->
 520              		.loc 1 472 0
 521 006a 0C68     		ldr	r4, [r1]
 522 006c 8B68     		ldr	r3, [r1, #8]
 523 006e 2343     		orr	r3, r4
 524 0070 CA68     		ldr	r2, [r1, #12]
 525 0072 1343     		orr	r3, r2
 526 0074 0A69     		ldr	r2, [r1, #16]
 527 0076 1343     		orr	r3, r2
 473:Drivers/STM32L0xx_HAL_Driver/Src/stm32l0xx_hal_rtc_ex.c ****             (uint32_t)sTamper->MaskFlag | (uint32_t)sTamper->Filter | (uint32_t)sTamper->SamplingFr
 528              		.loc 1 473 0
 529 0078 4A69     		ldr	r2, [r1, #20]
 530 007a 1343     		orr	r3, r2
 531 007c 8A69     		ldr	r2, [r1, #24]
 532 007e 1343     		orr	r3, r2
 533 0080 CA69     		ldr	r2, [r1, #28]
 534 0082 1343     		orr	r3, r2
 474:Drivers/STM32L0xx_HAL_Driver/Src/stm32l0xx_hal_rtc_ex.c ****             (uint32_t)sTamper->PrechargeDuration | (uint32_t)sTamper->TamperPullUp | (uint32_t)sTam
 535              		.loc 1 474 0
 536 0084 0A6A     		ldr	r2, [r1, #32]
 537 0086 1343     		orr	r3, r2
 538 0088 4A6A     		ldr	r2, [r1, #36]
 472:Drivers/STM32L0xx_HAL_Driver/Src/stm32l0xx_hal_rtc_ex.c ****             (uint32_t)sTamper->MaskFlag | (uint32_t)sTamper->Filter | (uint32_t)sTamper->SamplingFr
 539              		.loc 1 472 0
 540 008a 1343     		orr	r3, r2
 541              	.LVL47:
 475:Drivers/STM32L0xx_HAL_Driver/Src/stm32l0xx_hal_rtc_ex.c **** 
 476:Drivers/STM32L0xx_HAL_Driver/Src/stm32l0xx_hal_rtc_ex.c **** #if defined (STM32L063xx) || defined (STM32L062xx) || defined (STM32L061xx) || \
 477:Drivers/STM32L0xx_HAL_Driver/Src/stm32l0xx_hal_rtc_ex.c ****     defined (STM32L053xx) || defined (STM32L052xx) || defined (STM32L051xx)
 478:Drivers/STM32L0xx_HAL_Driver/Src/stm32l0xx_hal_rtc_ex.c ****   hrtc->Instance->TAMPCR &= ((uint32_t)~((uint32_t)sTamper->Tamper | (uint32_t)(sTamper->Tamper << 
 542              		.loc 1 478 0
 543 008c 0568     		ldr	r5, [r0]
 544 008e 296C     		ldr	r1, [r5, #64]
 545              	.LVL48:
 546 0090 6200     		lsl	r2, r4, #1
 547 0092 2243     		orr	r2, r4
 479:Drivers/STM32L0xx_HAL_Driver/Src/stm32l0xx_hal_rtc_ex.c ****                                          RTC_TAMPCR_TAMPFREQ | RTC_TAMPCR_TAMPFLT | RTC_TAMPCR_TAMP
 480:Drivers/STM32L0xx_HAL_Driver/Src/stm32l0xx_hal_rtc_ex.c ****                                          RTC_TAMPCR_TAMPPUDIS | RTC_TAMPCR_TAMPIE | RTC_TAMPCR_TAMP
 481:Drivers/STM32L0xx_HAL_Driver/Src/stm32l0xx_hal_rtc_ex.c ****                                          RTC_TAMPCR_TAMP2IE | RTC_TAMPCR_TAMP1NOERASE | RTC_TAMPCR_
 482:Drivers/STM32L0xx_HAL_Driver/Src/stm32l0xx_hal_rtc_ex.c ****                                          RTC_TAMPCR_TAMP1MF | RTC_TAMPCR_TAMP2MF));
 548              		.loc 1 482 0
 549 0094 084C     		ldr	r4, .L28
ARM GAS  /tmp/ccZ63Pwo.s 			page 19


 550 0096 2243     		orr	r2, r4
 478:Drivers/STM32L0xx_HAL_Driver/Src/stm32l0xx_hal_rtc_ex.c ****                                          RTC_TAMPCR_TAMPFREQ | RTC_TAMPCR_TAMPFLT | RTC_TAMPCR_TAMP
 551              		.loc 1 478 0
 552 0098 9143     		bic	r1, r2
 553 009a 2964     		str	r1, [r5, #64]
 483:Drivers/STM32L0xx_HAL_Driver/Src/stm32l0xx_hal_rtc_ex.c **** 
 484:Drivers/STM32L0xx_HAL_Driver/Src/stm32l0xx_hal_rtc_ex.c **** #elif defined (STM32L083xx) || defined (STM32L082xx) || defined (STM32L081xx) || \
 485:Drivers/STM32L0xx_HAL_Driver/Src/stm32l0xx_hal_rtc_ex.c ****       defined (STM32L073xx) || defined (STM32L072xx) || defined (STM32L071xx) || \
 486:Drivers/STM32L0xx_HAL_Driver/Src/stm32l0xx_hal_rtc_ex.c ****       defined (STM32L031xx) || defined (STM32L041xx)      
 487:Drivers/STM32L0xx_HAL_Driver/Src/stm32l0xx_hal_rtc_ex.c ****   hrtc->Instance->TAMPCR &= ((uint32_t)~((uint32_t)sTamper->Tamper | (uint32_t)(sTamper->Tamper << 
 488:Drivers/STM32L0xx_HAL_Driver/Src/stm32l0xx_hal_rtc_ex.c ****                                         RTC_TAMPCR_TAMPFREQ | RTC_TAMPCR_TAMPFLT | RTC_TAMPCR_TAMPP
 489:Drivers/STM32L0xx_HAL_Driver/Src/stm32l0xx_hal_rtc_ex.c ****                                         RTC_TAMPCR_TAMPPUDIS | RTC_TAMPCR_TAMPIE | RTC_TAMPCR_TAMP1
 490:Drivers/STM32L0xx_HAL_Driver/Src/stm32l0xx_hal_rtc_ex.c ****                                         RTC_TAMPCR_TAMP2IE | RTC_TAMPCR_TAMP3IE | RTC_TAMPCR_TAMP1N
 491:Drivers/STM32L0xx_HAL_Driver/Src/stm32l0xx_hal_rtc_ex.c ****                                         RTC_TAMPCR_TAMP2NOERASE | RTC_TAMPCR_TAMP3NOERASE | RTC_TAM
 492:Drivers/STM32L0xx_HAL_Driver/Src/stm32l0xx_hal_rtc_ex.c ****                                         RTC_TAMPCR_TAMP2MF | RTC_TAMPCR_TAMP3MF));
 493:Drivers/STM32L0xx_HAL_Driver/Src/stm32l0xx_hal_rtc_ex.c ****                                         
 494:Drivers/STM32L0xx_HAL_Driver/Src/stm32l0xx_hal_rtc_ex.c **** #elif defined (STM32L011xx) || defined (STM32L021xx)
 495:Drivers/STM32L0xx_HAL_Driver/Src/stm32l0xx_hal_rtc_ex.c ****   hrtc->Instance->TAMPCR &= ((uint32_t)~((uint32_t)sTamper->Tamper | (uint32_t)(sTamper->Tamper << 
 496:Drivers/STM32L0xx_HAL_Driver/Src/stm32l0xx_hal_rtc_ex.c ****                                         RTC_TAMPCR_TAMPFREQ | RTC_TAMPCR_TAMPFLT | RTC_TAMPCR_TAMPP
 497:Drivers/STM32L0xx_HAL_Driver/Src/stm32l0xx_hal_rtc_ex.c ****                                         RTC_TAMPCR_TAMPPUDIS | RTC_TAMPCR_TAMPIE                   
 498:Drivers/STM32L0xx_HAL_Driver/Src/stm32l0xx_hal_rtc_ex.c ****                                         RTC_TAMPCR_TAMP2IE | RTC_TAMPCR_TAMP3IE                    
 499:Drivers/STM32L0xx_HAL_Driver/Src/stm32l0xx_hal_rtc_ex.c ****                                         RTC_TAMPCR_TAMP2NOERASE | RTC_TAMPCR_TAMP3NOERASE          
 500:Drivers/STM32L0xx_HAL_Driver/Src/stm32l0xx_hal_rtc_ex.c ****                                         RTC_TAMPCR_TAMP2MF | RTC_TAMPCR_TAMP3MF));
 501:Drivers/STM32L0xx_HAL_Driver/Src/stm32l0xx_hal_rtc_ex.c ****                                         
 502:Drivers/STM32L0xx_HAL_Driver/Src/stm32l0xx_hal_rtc_ex.c **** #endif /* (STM32L011xx) || (STM32L021xx) 
 503:Drivers/STM32L0xx_HAL_Driver/Src/stm32l0xx_hal_rtc_ex.c ****         */
 504:Drivers/STM32L0xx_HAL_Driver/Src/stm32l0xx_hal_rtc_ex.c ****  
 505:Drivers/STM32L0xx_HAL_Driver/Src/stm32l0xx_hal_rtc_ex.c ****   hrtc->Instance->TAMPCR |= tmpreg;
 554              		.loc 1 505 0
 555 009c 0268     		ldr	r2, [r0]
 556 009e 116C     		ldr	r1, [r2, #64]
 557 00a0 0B43     		orr	r3, r1
 558              	.LVL49:
 559 00a2 1364     		str	r3, [r2, #64]
 506:Drivers/STM32L0xx_HAL_Driver/Src/stm32l0xx_hal_rtc_ex.c **** 
 507:Drivers/STM32L0xx_HAL_Driver/Src/stm32l0xx_hal_rtc_ex.c ****   hrtc->State = HAL_RTC_STATE_READY;
 560              		.loc 1 507 0
 561 00a4 0122     		mov	r2, #1
 562 00a6 2123     		mov	r3, #33
 563 00a8 C254     		strb	r2, [r0, r3]
 508:Drivers/STM32L0xx_HAL_Driver/Src/stm32l0xx_hal_rtc_ex.c **** 
 509:Drivers/STM32L0xx_HAL_Driver/Src/stm32l0xx_hal_rtc_ex.c ****   /* Process Unlocked */
 510:Drivers/STM32L0xx_HAL_Driver/Src/stm32l0xx_hal_rtc_ex.c ****   __HAL_UNLOCK(hrtc);
 564              		.loc 1 510 0
 565 00aa 0022     		mov	r2, #0
 566 00ac 013B     		sub	r3, r3, #1
 567 00ae C254     		strb	r2, [r0, r3]
 511:Drivers/STM32L0xx_HAL_Driver/Src/stm32l0xx_hal_rtc_ex.c **** 
 512:Drivers/STM32L0xx_HAL_Driver/Src/stm32l0xx_hal_rtc_ex.c ****   return HAL_OK;
 568              		.loc 1 512 0
 569 00b0 0020     		mov	r0, #0
 570              	.LVL50:
 571 00b2 00E0     		b	.L21
 572              	.LVL51:
 573              	.L27:
 385:Drivers/STM32L0xx_HAL_Driver/Src/stm32l0xx_hal_rtc_ex.c **** 
 574              		.loc 1 385 0
ARM GAS  /tmp/ccZ63Pwo.s 			page 20


 575 00b4 0220     		mov	r0, #2
 576              	.LVL52:
 577              	.L21:
 513:Drivers/STM32L0xx_HAL_Driver/Src/stm32l0xx_hal_rtc_ex.c **** }
 578              		.loc 1 513 0
 579              		@ sp needed
 580 00b6 30BD     		pop	{r4, r5, pc}
 581              	.L29:
 582              		.align	2
 583              	.L28:
 584 00b8 84FF3F00 		.word	4194180
 585              		.cfi_endproc
 586              	.LFE40:
 588              		.section	.text.HAL_RTCEx_SetTamper_IT,"ax",%progbits
 589              		.align	2
 590              		.global	HAL_RTCEx_SetTamper_IT
 591              		.code	16
 592              		.thumb_func
 594              	HAL_RTCEx_SetTamper_IT:
 595              	.LFB41:
 514:Drivers/STM32L0xx_HAL_Driver/Src/stm32l0xx_hal_rtc_ex.c **** 
 515:Drivers/STM32L0xx_HAL_Driver/Src/stm32l0xx_hal_rtc_ex.c **** /**
 516:Drivers/STM32L0xx_HAL_Driver/Src/stm32l0xx_hal_rtc_ex.c ****   * @brief  Set Tamper with interrupt.
 517:Drivers/STM32L0xx_HAL_Driver/Src/stm32l0xx_hal_rtc_ex.c ****   * @note   By calling this API we force the tamper interrupt for all tampers.
 518:Drivers/STM32L0xx_HAL_Driver/Src/stm32l0xx_hal_rtc_ex.c ****   * @param  hrtc: RTC handle
 519:Drivers/STM32L0xx_HAL_Driver/Src/stm32l0xx_hal_rtc_ex.c ****   * @param  sTamper: Pointer to RTC Tamper.
 520:Drivers/STM32L0xx_HAL_Driver/Src/stm32l0xx_hal_rtc_ex.c ****   * @retval HAL status
 521:Drivers/STM32L0xx_HAL_Driver/Src/stm32l0xx_hal_rtc_ex.c ****   */
 522:Drivers/STM32L0xx_HAL_Driver/Src/stm32l0xx_hal_rtc_ex.c **** HAL_StatusTypeDef HAL_RTCEx_SetTamper_IT(RTC_HandleTypeDef *hrtc, RTC_TamperTypeDef* sTamper)
 523:Drivers/STM32L0xx_HAL_Driver/Src/stm32l0xx_hal_rtc_ex.c **** {
 596              		.loc 1 523 0
 597              		.cfi_startproc
 598              	.LVL53:
 599 0000 30B5     		push	{r4, r5, lr}
 600              	.LCFI5:
 601              		.cfi_def_cfa_offset 12
 602              		.cfi_offset 4, -12
 603              		.cfi_offset 5, -8
 604              		.cfi_offset 14, -4
 605              	.LVL54:
 524:Drivers/STM32L0xx_HAL_Driver/Src/stm32l0xx_hal_rtc_ex.c ****   uint32_t tmpreg = 0U;
 525:Drivers/STM32L0xx_HAL_Driver/Src/stm32l0xx_hal_rtc_ex.c **** 
 526:Drivers/STM32L0xx_HAL_Driver/Src/stm32l0xx_hal_rtc_ex.c ****   /* Check the parameters */
 527:Drivers/STM32L0xx_HAL_Driver/Src/stm32l0xx_hal_rtc_ex.c ****   assert_param( IS_RTC_TAMPER(sTamper->Tamper));
 528:Drivers/STM32L0xx_HAL_Driver/Src/stm32l0xx_hal_rtc_ex.c ****   assert_param(IS_RTC_TAMPER_INTERRUPT(sTamper->Interrupt));
 529:Drivers/STM32L0xx_HAL_Driver/Src/stm32l0xx_hal_rtc_ex.c ****   assert_param( IS_RTC_TAMPER_TRIGGER(sTamper->Trigger));
 530:Drivers/STM32L0xx_HAL_Driver/Src/stm32l0xx_hal_rtc_ex.c ****   assert_param(IS_RTC_TAMPER_ERASE_MODE(sTamper->NoErase));
 531:Drivers/STM32L0xx_HAL_Driver/Src/stm32l0xx_hal_rtc_ex.c ****   assert_param(IS_RTC_TAMPER_MASKFLAG_STATE(sTamper->MaskFlag));
 532:Drivers/STM32L0xx_HAL_Driver/Src/stm32l0xx_hal_rtc_ex.c ****   assert_param(IS_RTC_TAMPER_FILTER(sTamper->Filter));
 533:Drivers/STM32L0xx_HAL_Driver/Src/stm32l0xx_hal_rtc_ex.c ****   assert_param(IS_RTC_TAMPER_SAMPLING_FREQ(sTamper->SamplingFrequency));
 534:Drivers/STM32L0xx_HAL_Driver/Src/stm32l0xx_hal_rtc_ex.c ****   assert_param(IS_RTC_TAMPER_PRECHARGE_DURATION(sTamper->PrechargeDuration));
 535:Drivers/STM32L0xx_HAL_Driver/Src/stm32l0xx_hal_rtc_ex.c ****   assert_param(IS_RTC_TAMPER_PULLUP_STATE(sTamper->TamperPullUp));
 536:Drivers/STM32L0xx_HAL_Driver/Src/stm32l0xx_hal_rtc_ex.c ****   assert_param(IS_RTC_TAMPER_TIMESTAMPONTAMPER_DETECTION(sTamper->TimeStampOnTamperDetection));
 537:Drivers/STM32L0xx_HAL_Driver/Src/stm32l0xx_hal_rtc_ex.c **** 
 538:Drivers/STM32L0xx_HAL_Driver/Src/stm32l0xx_hal_rtc_ex.c ****   /* Process Locked */
 539:Drivers/STM32L0xx_HAL_Driver/Src/stm32l0xx_hal_rtc_ex.c ****   __HAL_LOCK(hrtc);
 606              		.loc 1 539 0
ARM GAS  /tmp/ccZ63Pwo.s 			page 21


 607 0002 2023     		mov	r3, #32
 608 0004 C35C     		ldrb	r3, [r0, r3]
 609 0006 012B     		cmp	r3, #1
 610 0008 5FD0     		beq	.L37
 611              		.loc 1 539 0 is_stmt 0 discriminator 2
 612 000a 0122     		mov	r2, #1
 613 000c 2023     		mov	r3, #32
 614 000e C254     		strb	r2, [r0, r3]
 540:Drivers/STM32L0xx_HAL_Driver/Src/stm32l0xx_hal_rtc_ex.c **** 
 541:Drivers/STM32L0xx_HAL_Driver/Src/stm32l0xx_hal_rtc_ex.c ****   hrtc->State = HAL_RTC_STATE_BUSY;
 615              		.loc 1 541 0 is_stmt 1 discriminator 2
 616 0010 0132     		add	r2, r2, #1
 617 0012 0133     		add	r3, r3, #1
 618 0014 C254     		strb	r2, [r0, r3]
 542:Drivers/STM32L0xx_HAL_Driver/Src/stm32l0xx_hal_rtc_ex.c **** 
 543:Drivers/STM32L0xx_HAL_Driver/Src/stm32l0xx_hal_rtc_ex.c ****   /* Configure the tamper trigger */
 544:Drivers/STM32L0xx_HAL_Driver/Src/stm32l0xx_hal_rtc_ex.c ****   if(sTamper->Trigger != RTC_TAMPERTRIGGER_RISINGEDGE)
 619              		.loc 1 544 0 discriminator 2
 620 0016 8B68     		ldr	r3, [r1, #8]
 621 0018 002B     		cmp	r3, #0
 622 001a 02D0     		beq	.L32
 545:Drivers/STM32L0xx_HAL_Driver/Src/stm32l0xx_hal_rtc_ex.c ****   {
 546:Drivers/STM32L0xx_HAL_Driver/Src/stm32l0xx_hal_rtc_ex.c ****     sTamper->Trigger = (uint32_t)(sTamper->Tamper << 1U);
 623              		.loc 1 546 0
 624 001c 0B68     		ldr	r3, [r1]
 625 001e 5B00     		lsl	r3, r3, #1
 626 0020 8B60     		str	r3, [r1, #8]
 627              	.L32:
 547:Drivers/STM32L0xx_HAL_Driver/Src/stm32l0xx_hal_rtc_ex.c ****   }
 548:Drivers/STM32L0xx_HAL_Driver/Src/stm32l0xx_hal_rtc_ex.c **** 
 549:Drivers/STM32L0xx_HAL_Driver/Src/stm32l0xx_hal_rtc_ex.c ****   if(sTamper->NoErase != RTC_TAMPER_ERASE_BACKUP_ENABLE)
 628              		.loc 1 549 0
 629 0022 CB68     		ldr	r3, [r1, #12]
 630 0024 002B     		cmp	r3, #0
 631 0026 0ED0     		beq	.L33
 550:Drivers/STM32L0xx_HAL_Driver/Src/stm32l0xx_hal_rtc_ex.c ****   { 
 551:Drivers/STM32L0xx_HAL_Driver/Src/stm32l0xx_hal_rtc_ex.c ****     sTamper->NoErase = 0U;
 632              		.loc 1 551 0
 633 0028 0023     		mov	r3, #0
 634 002a CB60     		str	r3, [r1, #12]
 552:Drivers/STM32L0xx_HAL_Driver/Src/stm32l0xx_hal_rtc_ex.c ****     
 553:Drivers/STM32L0xx_HAL_Driver/Src/stm32l0xx_hal_rtc_ex.c **** #if defined (STM32L063xx) || defined (STM32L062xx) || defined (STM32L061xx) || \
 554:Drivers/STM32L0xx_HAL_Driver/Src/stm32l0xx_hal_rtc_ex.c ****     defined (STM32L053xx) || defined (STM32L052xx) || defined (STM32L051xx) ||\
 555:Drivers/STM32L0xx_HAL_Driver/Src/stm32l0xx_hal_rtc_ex.c ****     defined (STM32L083xx) || defined (STM32L082xx) || defined (STM32L081xx) || \
 556:Drivers/STM32L0xx_HAL_Driver/Src/stm32l0xx_hal_rtc_ex.c ****     defined (STM32L073xx) || defined (STM32L072xx) || defined (STM32L071xx) || \
 557:Drivers/STM32L0xx_HAL_Driver/Src/stm32l0xx_hal_rtc_ex.c ****     defined (STM32L031xx) || defined (STM32L041xx)
 558:Drivers/STM32L0xx_HAL_Driver/Src/stm32l0xx_hal_rtc_ex.c **** 
 559:Drivers/STM32L0xx_HAL_Driver/Src/stm32l0xx_hal_rtc_ex.c ****     if((sTamper->Tamper & RTC_TAMPER_1) != 0U)
 635              		.loc 1 559 0
 636 002c 0B68     		ldr	r3, [r1]
 637 002e DA07     		lsl	r2, r3, #31
 638 0030 02D5     		bpl	.L34
 560:Drivers/STM32L0xx_HAL_Driver/Src/stm32l0xx_hal_rtc_ex.c ****     {
 561:Drivers/STM32L0xx_HAL_Driver/Src/stm32l0xx_hal_rtc_ex.c ****       sTamper->NoErase |= RTC_TAMPCR_TAMP1NOERASE;
 639              		.loc 1 561 0
 640 0032 8022     		mov	r2, #128
 641 0034 9202     		lsl	r2, r2, #10
ARM GAS  /tmp/ccZ63Pwo.s 			page 22


 642 0036 CA60     		str	r2, [r1, #12]
 643              	.L34:
 562:Drivers/STM32L0xx_HAL_Driver/Src/stm32l0xx_hal_rtc_ex.c ****     }
 563:Drivers/STM32L0xx_HAL_Driver/Src/stm32l0xx_hal_rtc_ex.c **** #endif /* (STM32L063xx) || (STM32L062xx) || (STM32L061xx) ||
 564:Drivers/STM32L0xx_HAL_Driver/Src/stm32l0xx_hal_rtc_ex.c ****         * (STM32L053xx) || (STM32L052xx) || (STM32L051xx) ||
 565:Drivers/STM32L0xx_HAL_Driver/Src/stm32l0xx_hal_rtc_ex.c ****         * (STM32L083xx) || (STM32L082xx) || (STM32L081xx) ||
 566:Drivers/STM32L0xx_HAL_Driver/Src/stm32l0xx_hal_rtc_ex.c ****         * (STM32L073xx) || (STM32L072xx) || (STM32L071xx) || 
 567:Drivers/STM32L0xx_HAL_Driver/Src/stm32l0xx_hal_rtc_ex.c ****         * (STM32L031xx) || (STM32L041xx)
 568:Drivers/STM32L0xx_HAL_Driver/Src/stm32l0xx_hal_rtc_ex.c ****         */
 569:Drivers/STM32L0xx_HAL_Driver/Src/stm32l0xx_hal_rtc_ex.c **** 
 570:Drivers/STM32L0xx_HAL_Driver/Src/stm32l0xx_hal_rtc_ex.c ****         
 571:Drivers/STM32L0xx_HAL_Driver/Src/stm32l0xx_hal_rtc_ex.c ****     if((sTamper->Tamper & RTC_TAMPER_2) != 0U)
 644              		.loc 1 571 0
 645 0038 1B07     		lsl	r3, r3, #28
 646 003a 04D5     		bpl	.L33
 572:Drivers/STM32L0xx_HAL_Driver/Src/stm32l0xx_hal_rtc_ex.c ****     {
 573:Drivers/STM32L0xx_HAL_Driver/Src/stm32l0xx_hal_rtc_ex.c ****       sTamper->NoErase |= RTC_TAMPCR_TAMP2NOERASE;
 647              		.loc 1 573 0
 648 003c 8023     		mov	r3, #128
 649 003e 5B03     		lsl	r3, r3, #13
 650 0040 CA68     		ldr	r2, [r1, #12]
 651 0042 1343     		orr	r3, r2
 652 0044 CB60     		str	r3, [r1, #12]
 653              	.L33:
 574:Drivers/STM32L0xx_HAL_Driver/Src/stm32l0xx_hal_rtc_ex.c ****     }
 575:Drivers/STM32L0xx_HAL_Driver/Src/stm32l0xx_hal_rtc_ex.c **** #if defined (STM32L083xx) || defined (STM32L082xx) || defined (STM32L081xx) || \
 576:Drivers/STM32L0xx_HAL_Driver/Src/stm32l0xx_hal_rtc_ex.c ****     defined (STM32L073xx) || defined (STM32L072xx) || defined (STM32L071xx) || \
 577:Drivers/STM32L0xx_HAL_Driver/Src/stm32l0xx_hal_rtc_ex.c ****     defined (STM32L031xx) || defined (STM32L041xx) || defined (STM32L011xx) || defined (STM32L021xx
 578:Drivers/STM32L0xx_HAL_Driver/Src/stm32l0xx_hal_rtc_ex.c **** 
 579:Drivers/STM32L0xx_HAL_Driver/Src/stm32l0xx_hal_rtc_ex.c ****     if((sTamper->Tamper & RTC_TAMPER_3) != 0U)
 580:Drivers/STM32L0xx_HAL_Driver/Src/stm32l0xx_hal_rtc_ex.c ****     {
 581:Drivers/STM32L0xx_HAL_Driver/Src/stm32l0xx_hal_rtc_ex.c ****       sTamper->NoErase |= RTC_TAMPCR_TAMP3NOERASE;
 582:Drivers/STM32L0xx_HAL_Driver/Src/stm32l0xx_hal_rtc_ex.c ****     }
 583:Drivers/STM32L0xx_HAL_Driver/Src/stm32l0xx_hal_rtc_ex.c **** #endif /* (STM32L083xx) || (STM32L082xx) || (STM32L081xx) ||
 584:Drivers/STM32L0xx_HAL_Driver/Src/stm32l0xx_hal_rtc_ex.c ****         * (STM32L073xx) || (STM32L072xx) || (STM32L071xx) || (STM32L031xx) || (STM32L041xx) || (STM
 585:Drivers/STM32L0xx_HAL_Driver/Src/stm32l0xx_hal_rtc_ex.c ****         */
 586:Drivers/STM32L0xx_HAL_Driver/Src/stm32l0xx_hal_rtc_ex.c ****   }
 587:Drivers/STM32L0xx_HAL_Driver/Src/stm32l0xx_hal_rtc_ex.c **** 
 588:Drivers/STM32L0xx_HAL_Driver/Src/stm32l0xx_hal_rtc_ex.c ****   if(sTamper->MaskFlag != RTC_TAMPERMASK_FLAG_DISABLE)
 654              		.loc 1 588 0
 655 0046 0B69     		ldr	r3, [r1, #16]
 656 0048 002B     		cmp	r3, #0
 657 004a 0ED0     		beq	.L35
 589:Drivers/STM32L0xx_HAL_Driver/Src/stm32l0xx_hal_rtc_ex.c ****   {
 590:Drivers/STM32L0xx_HAL_Driver/Src/stm32l0xx_hal_rtc_ex.c ****     sTamper->MaskFlag = 0U;
 658              		.loc 1 590 0
 659 004c 0023     		mov	r3, #0
 660 004e 0B61     		str	r3, [r1, #16]
 591:Drivers/STM32L0xx_HAL_Driver/Src/stm32l0xx_hal_rtc_ex.c ****     
 592:Drivers/STM32L0xx_HAL_Driver/Src/stm32l0xx_hal_rtc_ex.c **** #if defined (STM32L063xx) || defined (STM32L062xx) || defined (STM32L061xx) || \
 593:Drivers/STM32L0xx_HAL_Driver/Src/stm32l0xx_hal_rtc_ex.c ****     defined (STM32L053xx) || defined (STM32L052xx) || defined (STM32L051xx) ||\
 594:Drivers/STM32L0xx_HAL_Driver/Src/stm32l0xx_hal_rtc_ex.c ****     defined (STM32L083xx) || defined (STM32L082xx) || defined (STM32L081xx) || \
 595:Drivers/STM32L0xx_HAL_Driver/Src/stm32l0xx_hal_rtc_ex.c ****     defined (STM32L073xx) || defined (STM32L072xx) || defined (STM32L071xx) || \
 596:Drivers/STM32L0xx_HAL_Driver/Src/stm32l0xx_hal_rtc_ex.c ****     defined (STM32L031xx) || defined (STM32L041xx)
 597:Drivers/STM32L0xx_HAL_Driver/Src/stm32l0xx_hal_rtc_ex.c ****     if((sTamper->Tamper & RTC_TAMPER_1) != 0U)
 661              		.loc 1 597 0
 662 0050 0B68     		ldr	r3, [r1]
ARM GAS  /tmp/ccZ63Pwo.s 			page 23


 663 0052 DA07     		lsl	r2, r3, #31
 664 0054 02D5     		bpl	.L36
 598:Drivers/STM32L0xx_HAL_Driver/Src/stm32l0xx_hal_rtc_ex.c ****     {
 599:Drivers/STM32L0xx_HAL_Driver/Src/stm32l0xx_hal_rtc_ex.c ****       sTamper->MaskFlag |= RTC_TAMPCR_TAMP1MF;
 665              		.loc 1 599 0
 666 0056 8022     		mov	r2, #128
 667 0058 D202     		lsl	r2, r2, #11
 668 005a 0A61     		str	r2, [r1, #16]
 669              	.L36:
 600:Drivers/STM32L0xx_HAL_Driver/Src/stm32l0xx_hal_rtc_ex.c ****     }
 601:Drivers/STM32L0xx_HAL_Driver/Src/stm32l0xx_hal_rtc_ex.c **** #endif /* (STM32L063xx) || (STM32L062xx) || (STM32L061xx) ||
 602:Drivers/STM32L0xx_HAL_Driver/Src/stm32l0xx_hal_rtc_ex.c ****         * (STM32L053xx) || (STM32L052xx) || (STM32L051xx) ||
 603:Drivers/STM32L0xx_HAL_Driver/Src/stm32l0xx_hal_rtc_ex.c ****         * (STM32L083xx) || (STM32L082xx) || (STM32L081xx) ||
 604:Drivers/STM32L0xx_HAL_Driver/Src/stm32l0xx_hal_rtc_ex.c ****         * (STM32L073xx) || (STM32L072xx) || (STM32L071xx) || 
 605:Drivers/STM32L0xx_HAL_Driver/Src/stm32l0xx_hal_rtc_ex.c ****         * (STM32L031xx) || (STM32L041xx)
 606:Drivers/STM32L0xx_HAL_Driver/Src/stm32l0xx_hal_rtc_ex.c ****         */
 607:Drivers/STM32L0xx_HAL_Driver/Src/stm32l0xx_hal_rtc_ex.c **** 
 608:Drivers/STM32L0xx_HAL_Driver/Src/stm32l0xx_hal_rtc_ex.c ****     if((sTamper->Tamper & RTC_TAMPER_2) != 0U)
 670              		.loc 1 608 0
 671 005c 1B07     		lsl	r3, r3, #28
 672 005e 04D5     		bpl	.L35
 609:Drivers/STM32L0xx_HAL_Driver/Src/stm32l0xx_hal_rtc_ex.c ****     {
 610:Drivers/STM32L0xx_HAL_Driver/Src/stm32l0xx_hal_rtc_ex.c ****       sTamper->MaskFlag |= RTC_TAMPCR_TAMP2MF;
 673              		.loc 1 610 0
 674 0060 8023     		mov	r3, #128
 675 0062 9B03     		lsl	r3, r3, #14
 676 0064 0A69     		ldr	r2, [r1, #16]
 677 0066 1343     		orr	r3, r2
 678 0068 0B61     		str	r3, [r1, #16]
 679              	.L35:
 611:Drivers/STM32L0xx_HAL_Driver/Src/stm32l0xx_hal_rtc_ex.c ****     }
 612:Drivers/STM32L0xx_HAL_Driver/Src/stm32l0xx_hal_rtc_ex.c **** #if defined (STM32L083xx) || defined (STM32L082xx) || defined (STM32L081xx) || \
 613:Drivers/STM32L0xx_HAL_Driver/Src/stm32l0xx_hal_rtc_ex.c ****     defined (STM32L073xx) || defined (STM32L072xx) || defined (STM32L071xx) || \
 614:Drivers/STM32L0xx_HAL_Driver/Src/stm32l0xx_hal_rtc_ex.c ****     defined (STM32L031xx) || defined (STM32L041xx) || defined (STM32L011xx) || defined (STM32L021xx
 615:Drivers/STM32L0xx_HAL_Driver/Src/stm32l0xx_hal_rtc_ex.c **** 
 616:Drivers/STM32L0xx_HAL_Driver/Src/stm32l0xx_hal_rtc_ex.c ****     if((sTamper->Tamper & RTC_TAMPER_3) != 0U)
 617:Drivers/STM32L0xx_HAL_Driver/Src/stm32l0xx_hal_rtc_ex.c ****     {
 618:Drivers/STM32L0xx_HAL_Driver/Src/stm32l0xx_hal_rtc_ex.c ****       sTamper->MaskFlag |= RTC_TAMPCR_TAMP3MF;
 619:Drivers/STM32L0xx_HAL_Driver/Src/stm32l0xx_hal_rtc_ex.c ****     }
 620:Drivers/STM32L0xx_HAL_Driver/Src/stm32l0xx_hal_rtc_ex.c **** #endif /* (STM32L083xx) || (STM32L082xx) || (STM32L081xx) ||
 621:Drivers/STM32L0xx_HAL_Driver/Src/stm32l0xx_hal_rtc_ex.c ****         * (STM32L073xx) || (STM32L072xx) || (STM32L071xx) || (STM32L031xx) || (STM32L041xx) || (STM
 622:Drivers/STM32L0xx_HAL_Driver/Src/stm32l0xx_hal_rtc_ex.c ****         */
 623:Drivers/STM32L0xx_HAL_Driver/Src/stm32l0xx_hal_rtc_ex.c ****   }
 624:Drivers/STM32L0xx_HAL_Driver/Src/stm32l0xx_hal_rtc_ex.c **** 
 625:Drivers/STM32L0xx_HAL_Driver/Src/stm32l0xx_hal_rtc_ex.c ****   /* Configure the RTC_TAMPCR register */    
 626:Drivers/STM32L0xx_HAL_Driver/Src/stm32l0xx_hal_rtc_ex.c ****   tmpreg = (uint32_t)((uint32_t)sTamper->Tamper | (uint32_t)sTamper->Interrupt | (uint32_t)sTamper-
 680              		.loc 1 626 0
 681 006a 0C68     		ldr	r4, [r1]
 682 006c 4B68     		ldr	r3, [r1, #4]
 683 006e 2343     		orr	r3, r4
 684 0070 8A68     		ldr	r2, [r1, #8]
 685 0072 1343     		orr	r3, r2
 686 0074 CA68     		ldr	r2, [r1, #12]
 687 0076 1343     		orr	r3, r2
 688 0078 0A69     		ldr	r2, [r1, #16]
 689 007a 1343     		orr	r3, r2
 627:Drivers/STM32L0xx_HAL_Driver/Src/stm32l0xx_hal_rtc_ex.c ****             (uint32_t)sTamper->MaskFlag | (uint32_t)sTamper->Filter | (uint32_t)sTamper->SamplingFr
ARM GAS  /tmp/ccZ63Pwo.s 			page 24


 690              		.loc 1 627 0
 691 007c 4A69     		ldr	r2, [r1, #20]
 692 007e 1343     		orr	r3, r2
 693 0080 8A69     		ldr	r2, [r1, #24]
 694 0082 1343     		orr	r3, r2
 695 0084 CA69     		ldr	r2, [r1, #28]
 696 0086 1343     		orr	r3, r2
 628:Drivers/STM32L0xx_HAL_Driver/Src/stm32l0xx_hal_rtc_ex.c ****             (uint32_t)sTamper->PrechargeDuration | (uint32_t)sTamper->TamperPullUp | (uint32_t)sTam
 697              		.loc 1 628 0
 698 0088 0A6A     		ldr	r2, [r1, #32]
 699 008a 1343     		orr	r3, r2
 700 008c 4A6A     		ldr	r2, [r1, #36]
 626:Drivers/STM32L0xx_HAL_Driver/Src/stm32l0xx_hal_rtc_ex.c ****             (uint32_t)sTamper->MaskFlag | (uint32_t)sTamper->Filter | (uint32_t)sTamper->SamplingFr
 701              		.loc 1 626 0
 702 008e 1343     		orr	r3, r2
 703              	.LVL55:
 629:Drivers/STM32L0xx_HAL_Driver/Src/stm32l0xx_hal_rtc_ex.c ****   
 630:Drivers/STM32L0xx_HAL_Driver/Src/stm32l0xx_hal_rtc_ex.c **** #if defined (STM32L063xx) || defined (STM32L062xx) || defined (STM32L061xx) || \
 631:Drivers/STM32L0xx_HAL_Driver/Src/stm32l0xx_hal_rtc_ex.c ****     defined (STM32L053xx) || defined (STM32L052xx) || defined (STM32L051xx)
 632:Drivers/STM32L0xx_HAL_Driver/Src/stm32l0xx_hal_rtc_ex.c ****   hrtc->Instance->TAMPCR &= (uint32_t)~((uint32_t)sTamper->Tamper | (uint32_t)(sTamper->Tamper << 1
 704              		.loc 1 632 0
 705 0090 0568     		ldr	r5, [r0]
 706 0092 296C     		ldr	r1, [r5, #64]
 707              	.LVL56:
 708 0094 6200     		lsl	r2, r4, #1
 709 0096 2243     		orr	r2, r4
 633:Drivers/STM32L0xx_HAL_Driver/Src/stm32l0xx_hal_rtc_ex.c ****                                        RTC_TAMPCR_TAMPFREQ | RTC_TAMPCR_TAMPFLT | RTC_TAMPCR_TAMPPR
 634:Drivers/STM32L0xx_HAL_Driver/Src/stm32l0xx_hal_rtc_ex.c ****                                        RTC_TAMPCR_TAMPPUDIS | RTC_TAMPCR_TAMPIE | RTC_TAMPCR_TAMP1I
 635:Drivers/STM32L0xx_HAL_Driver/Src/stm32l0xx_hal_rtc_ex.c ****                                        RTC_TAMPCR_TAMP2IE | RTC_TAMPCR_TAMP1NOERASE | RTC_TAMPCR_TA
 636:Drivers/STM32L0xx_HAL_Driver/Src/stm32l0xx_hal_rtc_ex.c ****                                        RTC_TAMPCR_TAMP1MF | RTC_TAMPCR_TAMP2MF);
 710              		.loc 1 636 0
 711 0098 0D4C     		ldr	r4, .L38
 712 009a 2243     		orr	r2, r4
 632:Drivers/STM32L0xx_HAL_Driver/Src/stm32l0xx_hal_rtc_ex.c ****                                        RTC_TAMPCR_TAMPFREQ | RTC_TAMPCR_TAMPFLT | RTC_TAMPCR_TAMPPR
 713              		.loc 1 632 0
 714 009c 9143     		bic	r1, r2
 715 009e 2964     		str	r1, [r5, #64]
 637:Drivers/STM32L0xx_HAL_Driver/Src/stm32l0xx_hal_rtc_ex.c **** 
 638:Drivers/STM32L0xx_HAL_Driver/Src/stm32l0xx_hal_rtc_ex.c **** #elif defined (STM32L083xx) || defined (STM32L082xx) || defined (STM32L081xx) || \
 639:Drivers/STM32L0xx_HAL_Driver/Src/stm32l0xx_hal_rtc_ex.c ****       defined (STM32L073xx) || defined (STM32L072xx) || defined (STM32L071xx) || \
 640:Drivers/STM32L0xx_HAL_Driver/Src/stm32l0xx_hal_rtc_ex.c ****       defined (STM32L031xx) || defined (STM32L041xx)    
 641:Drivers/STM32L0xx_HAL_Driver/Src/stm32l0xx_hal_rtc_ex.c ****   hrtc->Instance->TAMPCR &= (uint32_t)~((uint32_t)sTamper->Tamper | (uint32_t)(sTamper->Tamper << 1
 642:Drivers/STM32L0xx_HAL_Driver/Src/stm32l0xx_hal_rtc_ex.c ****                                        RTC_TAMPCR_TAMPFREQ | RTC_TAMPCR_TAMPFLT | RTC_TAMPCR_TAMPPR
 643:Drivers/STM32L0xx_HAL_Driver/Src/stm32l0xx_hal_rtc_ex.c ****                                        RTC_TAMPCR_TAMPPUDIS | RTC_TAMPCR_TAMPIE | RTC_TAMPCR_TAMP1I
 644:Drivers/STM32L0xx_HAL_Driver/Src/stm32l0xx_hal_rtc_ex.c ****                                        RTC_TAMPCR_TAMP2IE | RTC_TAMPCR_TAMP3IE | RTC_TAMPCR_TAMP1NO
 645:Drivers/STM32L0xx_HAL_Driver/Src/stm32l0xx_hal_rtc_ex.c ****                                        RTC_TAMPCR_TAMP2NOERASE | RTC_TAMPCR_TAMP3NOERASE | RTC_TAMP
 646:Drivers/STM32L0xx_HAL_Driver/Src/stm32l0xx_hal_rtc_ex.c ****                                        RTC_TAMPCR_TAMP2MF | RTC_TAMPCR_TAMP3MF);
 647:Drivers/STM32L0xx_HAL_Driver/Src/stm32l0xx_hal_rtc_ex.c **** 
 648:Drivers/STM32L0xx_HAL_Driver/Src/stm32l0xx_hal_rtc_ex.c **** #elif defined (STM32L011xx) || defined (STM32L021xx)
 649:Drivers/STM32L0xx_HAL_Driver/Src/stm32l0xx_hal_rtc_ex.c ****   hrtc->Instance->TAMPCR &= (uint32_t)~((uint32_t)sTamper->Tamper | (uint32_t)(sTamper->Tamper << 1
 650:Drivers/STM32L0xx_HAL_Driver/Src/stm32l0xx_hal_rtc_ex.c ****                                        RTC_TAMPCR_TAMPFREQ | RTC_TAMPCR_TAMPFLT | RTC_TAMPCR_TAMPPR
 651:Drivers/STM32L0xx_HAL_Driver/Src/stm32l0xx_hal_rtc_ex.c ****                                        RTC_TAMPCR_TAMPPUDIS | RTC_TAMPCR_TAMPIE                    
 652:Drivers/STM32L0xx_HAL_Driver/Src/stm32l0xx_hal_rtc_ex.c ****                                        RTC_TAMPCR_TAMP2IE | RTC_TAMPCR_TAMP3IE                     
 653:Drivers/STM32L0xx_HAL_Driver/Src/stm32l0xx_hal_rtc_ex.c ****                                        RTC_TAMPCR_TAMP2NOERASE | RTC_TAMPCR_TAMP3NOERASE           
 654:Drivers/STM32L0xx_HAL_Driver/Src/stm32l0xx_hal_rtc_ex.c ****                                        RTC_TAMPCR_TAMP2MF | RTC_TAMPCR_TAMP3MF);
 655:Drivers/STM32L0xx_HAL_Driver/Src/stm32l0xx_hal_rtc_ex.c **** 
 656:Drivers/STM32L0xx_HAL_Driver/Src/stm32l0xx_hal_rtc_ex.c **** #endif /* (STM32L011xx) || (STM32L021xx) 
ARM GAS  /tmp/ccZ63Pwo.s 			page 25


 657:Drivers/STM32L0xx_HAL_Driver/Src/stm32l0xx_hal_rtc_ex.c ****         */
 658:Drivers/STM32L0xx_HAL_Driver/Src/stm32l0xx_hal_rtc_ex.c **** 
 659:Drivers/STM32L0xx_HAL_Driver/Src/stm32l0xx_hal_rtc_ex.c ****   hrtc->Instance->TAMPCR |= tmpreg;
 716              		.loc 1 659 0
 717 00a0 0268     		ldr	r2, [r0]
 718 00a2 116C     		ldr	r1, [r2, #64]
 719 00a4 0B43     		orr	r3, r1
 720              	.LVL57:
 721 00a6 1364     		str	r3, [r2, #64]
 660:Drivers/STM32L0xx_HAL_Driver/Src/stm32l0xx_hal_rtc_ex.c **** 
 661:Drivers/STM32L0xx_HAL_Driver/Src/stm32l0xx_hal_rtc_ex.c ****   /* RTC Tamper Interrupt Configuration: EXTI configuration */
 662:Drivers/STM32L0xx_HAL_Driver/Src/stm32l0xx_hal_rtc_ex.c ****   __HAL_RTC_TAMPER_TIMESTAMP_EXTI_ENABLE_IT();
 722              		.loc 1 662 0
 723 00a8 0A4B     		ldr	r3, .L38+4
 724 00aa 1968     		ldr	r1, [r3]
 725 00ac 8024     		mov	r4, #128
 726 00ae 2403     		lsl	r4, r4, #12
 727 00b0 2143     		orr	r1, r4
 728 00b2 1960     		str	r1, [r3]
 663:Drivers/STM32L0xx_HAL_Driver/Src/stm32l0xx_hal_rtc_ex.c **** 
 664:Drivers/STM32L0xx_HAL_Driver/Src/stm32l0xx_hal_rtc_ex.c ****   __HAL_RTC_TAMPER_TIMESTAMP_EXTI_ENABLE_RISING_EDGE();
 729              		.loc 1 664 0
 730 00b4 9A68     		ldr	r2, [r3, #8]
 731 00b6 2243     		orr	r2, r4
 732 00b8 9A60     		str	r2, [r3, #8]
 665:Drivers/STM32L0xx_HAL_Driver/Src/stm32l0xx_hal_rtc_ex.c **** 
 666:Drivers/STM32L0xx_HAL_Driver/Src/stm32l0xx_hal_rtc_ex.c ****   hrtc->State = HAL_RTC_STATE_READY;
 733              		.loc 1 666 0
 734 00ba 0122     		mov	r2, #1
 735 00bc 2123     		mov	r3, #33
 736 00be C254     		strb	r2, [r0, r3]
 667:Drivers/STM32L0xx_HAL_Driver/Src/stm32l0xx_hal_rtc_ex.c **** 
 668:Drivers/STM32L0xx_HAL_Driver/Src/stm32l0xx_hal_rtc_ex.c ****   /* Process Unlocked */
 669:Drivers/STM32L0xx_HAL_Driver/Src/stm32l0xx_hal_rtc_ex.c ****   __HAL_UNLOCK(hrtc);
 737              		.loc 1 669 0
 738 00c0 0022     		mov	r2, #0
 739 00c2 013B     		sub	r3, r3, #1
 740 00c4 C254     		strb	r2, [r0, r3]
 670:Drivers/STM32L0xx_HAL_Driver/Src/stm32l0xx_hal_rtc_ex.c **** 
 671:Drivers/STM32L0xx_HAL_Driver/Src/stm32l0xx_hal_rtc_ex.c ****   return HAL_OK;
 741              		.loc 1 671 0
 742 00c6 0020     		mov	r0, #0
 743              	.LVL58:
 744 00c8 00E0     		b	.L31
 745              	.LVL59:
 746              	.L37:
 539:Drivers/STM32L0xx_HAL_Driver/Src/stm32l0xx_hal_rtc_ex.c **** 
 747              		.loc 1 539 0
 748 00ca 0220     		mov	r0, #2
 749              	.LVL60:
 750              	.L31:
 672:Drivers/STM32L0xx_HAL_Driver/Src/stm32l0xx_hal_rtc_ex.c **** }
 751              		.loc 1 672 0
 752              		@ sp needed
 753 00cc 30BD     		pop	{r4, r5, pc}
 754              	.L39:
 755 00ce C046     		.align	2
ARM GAS  /tmp/ccZ63Pwo.s 			page 26


 756              	.L38:
 757 00d0 84FF3F00 		.word	4194180
 758 00d4 00040140 		.word	1073808384
 759              		.cfi_endproc
 760              	.LFE41:
 762              		.section	.text.HAL_RTCEx_DeactivateTamper,"ax",%progbits
 763              		.align	2
 764              		.global	HAL_RTCEx_DeactivateTamper
 765              		.code	16
 766              		.thumb_func
 768              	HAL_RTCEx_DeactivateTamper:
 769              	.LFB42:
 673:Drivers/STM32L0xx_HAL_Driver/Src/stm32l0xx_hal_rtc_ex.c **** 
 674:Drivers/STM32L0xx_HAL_Driver/Src/stm32l0xx_hal_rtc_ex.c **** /**
 675:Drivers/STM32L0xx_HAL_Driver/Src/stm32l0xx_hal_rtc_ex.c ****   * @brief  Deactivate Tamper.
 676:Drivers/STM32L0xx_HAL_Driver/Src/stm32l0xx_hal_rtc_ex.c ****   * @param  hrtc: RTC handle
 677:Drivers/STM32L0xx_HAL_Driver/Src/stm32l0xx_hal_rtc_ex.c ****   * @param  Tamper: Selected tamper pin.
 678:Drivers/STM32L0xx_HAL_Driver/Src/stm32l0xx_hal_rtc_ex.c ****   *          This parameter can be RTC_Tamper_1 and/or RTC_TAMPER_2 for STM32L05x/6x.
 679:Drivers/STM32L0xx_HAL_Driver/Src/stm32l0xx_hal_rtc_ex.c ****   *          This parameter can be any combination of RTC_TAMPER_1, RTC_TAMPER_2 and RTC_TAMPER_3 f
 680:Drivers/STM32L0xx_HAL_Driver/Src/stm32l0xx_hal_rtc_ex.c ****   * @retval HAL status
 681:Drivers/STM32L0xx_HAL_Driver/Src/stm32l0xx_hal_rtc_ex.c ****   */
 682:Drivers/STM32L0xx_HAL_Driver/Src/stm32l0xx_hal_rtc_ex.c **** HAL_StatusTypeDef HAL_RTCEx_DeactivateTamper(RTC_HandleTypeDef *hrtc, uint32_t Tamper)
 683:Drivers/STM32L0xx_HAL_Driver/Src/stm32l0xx_hal_rtc_ex.c **** {
 770              		.loc 1 683 0
 771              		.cfi_startproc
 772              	.LVL61:
 773 0000 10B5     		push	{r4, lr}
 774              	.LCFI6:
 775              		.cfi_def_cfa_offset 8
 776              		.cfi_offset 4, -8
 777              		.cfi_offset 14, -4
 684:Drivers/STM32L0xx_HAL_Driver/Src/stm32l0xx_hal_rtc_ex.c ****   assert_param( IS_RTC_TAMPER(Tamper));
 685:Drivers/STM32L0xx_HAL_Driver/Src/stm32l0xx_hal_rtc_ex.c **** 
 686:Drivers/STM32L0xx_HAL_Driver/Src/stm32l0xx_hal_rtc_ex.c ****   /* Process Locked */
 687:Drivers/STM32L0xx_HAL_Driver/Src/stm32l0xx_hal_rtc_ex.c ****   __HAL_LOCK(hrtc);
 778              		.loc 1 687 0
 779 0002 2023     		mov	r3, #32
 780 0004 C35C     		ldrb	r3, [r0, r3]
 781 0006 012B     		cmp	r3, #1
 782 0008 1FD0     		beq	.L44
 783              		.loc 1 687 0 is_stmt 0 discriminator 2
 784 000a 0122     		mov	r2, #1
 785 000c 2023     		mov	r3, #32
 786 000e C254     		strb	r2, [r0, r3]
 688:Drivers/STM32L0xx_HAL_Driver/Src/stm32l0xx_hal_rtc_ex.c **** 
 689:Drivers/STM32L0xx_HAL_Driver/Src/stm32l0xx_hal_rtc_ex.c ****   hrtc->State = HAL_RTC_STATE_BUSY;
 787              		.loc 1 689 0 is_stmt 1 discriminator 2
 788 0010 0224     		mov	r4, #2
 789 0012 0133     		add	r3, r3, #1
 790 0014 C454     		strb	r4, [r0, r3]
 690:Drivers/STM32L0xx_HAL_Driver/Src/stm32l0xx_hal_rtc_ex.c **** 
 691:Drivers/STM32L0xx_HAL_Driver/Src/stm32l0xx_hal_rtc_ex.c ****   /* Disable the selected Tamper pin */
 692:Drivers/STM32L0xx_HAL_Driver/Src/stm32l0xx_hal_rtc_ex.c ****   hrtc->Instance->TAMPCR &= ((uint32_t)~Tamper);
 791              		.loc 1 692 0 discriminator 2
 792 0016 0468     		ldr	r4, [r0]
 793 0018 236C     		ldr	r3, [r4, #64]
 794 001a 8B43     		bic	r3, r1
ARM GAS  /tmp/ccZ63Pwo.s 			page 27


 795 001c 2364     		str	r3, [r4, #64]
 693:Drivers/STM32L0xx_HAL_Driver/Src/stm32l0xx_hal_rtc_ex.c ****   
 694:Drivers/STM32L0xx_HAL_Driver/Src/stm32l0xx_hal_rtc_ex.c **** #if defined (STM32L063xx) || defined (STM32L062xx) || defined (STM32L061xx) || \
 695:Drivers/STM32L0xx_HAL_Driver/Src/stm32l0xx_hal_rtc_ex.c ****     defined (STM32L053xx) || defined (STM32L052xx) || defined (STM32L051xx) ||\
 696:Drivers/STM32L0xx_HAL_Driver/Src/stm32l0xx_hal_rtc_ex.c ****     defined (STM32L083xx) || defined (STM32L082xx) || defined (STM32L081xx) || \
 697:Drivers/STM32L0xx_HAL_Driver/Src/stm32l0xx_hal_rtc_ex.c ****     defined (STM32L073xx) || defined (STM32L072xx) || defined (STM32L071xx) || \
 698:Drivers/STM32L0xx_HAL_Driver/Src/stm32l0xx_hal_rtc_ex.c ****     defined (STM32L031xx) || defined (STM32L041xx)
 699:Drivers/STM32L0xx_HAL_Driver/Src/stm32l0xx_hal_rtc_ex.c ****   if ((Tamper & RTC_TAMPER_1) != 0U)
 796              		.loc 1 699 0 discriminator 2
 797 001e 0A42     		tst	r2, r1
 798 0020 04D0     		beq	.L42
 700:Drivers/STM32L0xx_HAL_Driver/Src/stm32l0xx_hal_rtc_ex.c ****   {
 701:Drivers/STM32L0xx_HAL_Driver/Src/stm32l0xx_hal_rtc_ex.c ****     /* Disable the Tamper1 interrupt */
 702:Drivers/STM32L0xx_HAL_Driver/Src/stm32l0xx_hal_rtc_ex.c ****     hrtc->Instance->TAMPCR &= ((uint32_t)~(RTC_IT_TAMP | RTC_IT_TAMP1));
 799              		.loc 1 702 0
 800 0022 0268     		ldr	r2, [r0]
 801 0024 146C     		ldr	r4, [r2, #64]
 802 0026 0A4B     		ldr	r3, .L45
 803 0028 2340     		and	r3, r4
 804 002a 1364     		str	r3, [r2, #64]
 805              	.L42:
 703:Drivers/STM32L0xx_HAL_Driver/Src/stm32l0xx_hal_rtc_ex.c ****   }
 704:Drivers/STM32L0xx_HAL_Driver/Src/stm32l0xx_hal_rtc_ex.c ****   
 705:Drivers/STM32L0xx_HAL_Driver/Src/stm32l0xx_hal_rtc_ex.c **** #endif /* (STM32L063xx) || (STM32L062xx) || (STM32L061xx) ||
 706:Drivers/STM32L0xx_HAL_Driver/Src/stm32l0xx_hal_rtc_ex.c ****         * (STM32L053xx) || (STM32L052xx) || (STM32L051xx) ||
 707:Drivers/STM32L0xx_HAL_Driver/Src/stm32l0xx_hal_rtc_ex.c ****         * (STM32L083xx) || (STM32L082xx) || (STM32L081xx) ||
 708:Drivers/STM32L0xx_HAL_Driver/Src/stm32l0xx_hal_rtc_ex.c ****         * (STM32L073xx) || (STM32L072xx) || (STM32L071xx) || 
 709:Drivers/STM32L0xx_HAL_Driver/Src/stm32l0xx_hal_rtc_ex.c ****         * (STM32L031xx) || (STM32L041xx)
 710:Drivers/STM32L0xx_HAL_Driver/Src/stm32l0xx_hal_rtc_ex.c ****         */
 711:Drivers/STM32L0xx_HAL_Driver/Src/stm32l0xx_hal_rtc_ex.c ****   
 712:Drivers/STM32L0xx_HAL_Driver/Src/stm32l0xx_hal_rtc_ex.c ****   if ((Tamper & RTC_TAMPER_2) != 0U)
 806              		.loc 1 712 0
 807 002c 0B07     		lsl	r3, r1, #28
 808 002e 04D5     		bpl	.L43
 713:Drivers/STM32L0xx_HAL_Driver/Src/stm32l0xx_hal_rtc_ex.c ****   {
 714:Drivers/STM32L0xx_HAL_Driver/Src/stm32l0xx_hal_rtc_ex.c ****     /* Disable the Tamper2 interrupt */
 715:Drivers/STM32L0xx_HAL_Driver/Src/stm32l0xx_hal_rtc_ex.c ****     hrtc->Instance->TAMPCR &= ((uint32_t)~(RTC_IT_TAMP | RTC_IT_TAMP2));
 809              		.loc 1 715 0
 810 0030 0268     		ldr	r2, [r0]
 811 0032 116C     		ldr	r1, [r2, #64]
 812              	.LVL62:
 813 0034 074B     		ldr	r3, .L45+4
 814 0036 0B40     		and	r3, r1
 815 0038 1364     		str	r3, [r2, #64]
 816              	.L43:
 716:Drivers/STM32L0xx_HAL_Driver/Src/stm32l0xx_hal_rtc_ex.c ****   }
 717:Drivers/STM32L0xx_HAL_Driver/Src/stm32l0xx_hal_rtc_ex.c **** 
 718:Drivers/STM32L0xx_HAL_Driver/Src/stm32l0xx_hal_rtc_ex.c **** #if defined (STM32L083xx) || defined (STM32L082xx) || defined (STM32L081xx) || \
 719:Drivers/STM32L0xx_HAL_Driver/Src/stm32l0xx_hal_rtc_ex.c ****     defined (STM32L073xx) || defined (STM32L072xx) || defined (STM32L071xx) || \
 720:Drivers/STM32L0xx_HAL_Driver/Src/stm32l0xx_hal_rtc_ex.c ****     defined (STM32L031xx) || defined (STM32L041xx) || defined (STM32L011xx) || defined (STM32L021xx
 721:Drivers/STM32L0xx_HAL_Driver/Src/stm32l0xx_hal_rtc_ex.c ****     
 722:Drivers/STM32L0xx_HAL_Driver/Src/stm32l0xx_hal_rtc_ex.c ****     if ((Tamper & RTC_TAMPER_3) != 0U)
 723:Drivers/STM32L0xx_HAL_Driver/Src/stm32l0xx_hal_rtc_ex.c ****   {
 724:Drivers/STM32L0xx_HAL_Driver/Src/stm32l0xx_hal_rtc_ex.c ****     /* Disable the Tamper3 interrupt */
 725:Drivers/STM32L0xx_HAL_Driver/Src/stm32l0xx_hal_rtc_ex.c ****     hrtc->Instance->TAMPCR &= ((uint32_t)~(RTC_IT_TAMP | RTC_IT_TAMP3));
 726:Drivers/STM32L0xx_HAL_Driver/Src/stm32l0xx_hal_rtc_ex.c ****   }
 727:Drivers/STM32L0xx_HAL_Driver/Src/stm32l0xx_hal_rtc_ex.c ****   
ARM GAS  /tmp/ccZ63Pwo.s 			page 28


 728:Drivers/STM32L0xx_HAL_Driver/Src/stm32l0xx_hal_rtc_ex.c **** #endif /* (STM32L083xx) || (STM32L082xx) || (STM32L081xx) ||
 729:Drivers/STM32L0xx_HAL_Driver/Src/stm32l0xx_hal_rtc_ex.c ****     * (STM32L073xx) || (STM32L072xx) || (STM32L071xx) || (STM32L031xx) || (STM32L041xx) || (STM32L0
 730:Drivers/STM32L0xx_HAL_Driver/Src/stm32l0xx_hal_rtc_ex.c ****     */
 731:Drivers/STM32L0xx_HAL_Driver/Src/stm32l0xx_hal_rtc_ex.c ****     
 732:Drivers/STM32L0xx_HAL_Driver/Src/stm32l0xx_hal_rtc_ex.c ****   hrtc->State = HAL_RTC_STATE_READY;
 817              		.loc 1 732 0
 818 003a 0122     		mov	r2, #1
 819 003c 2123     		mov	r3, #33
 820 003e C254     		strb	r2, [r0, r3]
 733:Drivers/STM32L0xx_HAL_Driver/Src/stm32l0xx_hal_rtc_ex.c **** 
 734:Drivers/STM32L0xx_HAL_Driver/Src/stm32l0xx_hal_rtc_ex.c ****   /* Process Unlocked */
 735:Drivers/STM32L0xx_HAL_Driver/Src/stm32l0xx_hal_rtc_ex.c ****   __HAL_UNLOCK(hrtc);
 821              		.loc 1 735 0
 822 0040 0022     		mov	r2, #0
 823 0042 013B     		sub	r3, r3, #1
 824 0044 C254     		strb	r2, [r0, r3]
 736:Drivers/STM32L0xx_HAL_Driver/Src/stm32l0xx_hal_rtc_ex.c **** 
 737:Drivers/STM32L0xx_HAL_Driver/Src/stm32l0xx_hal_rtc_ex.c ****   return HAL_OK;
 825              		.loc 1 737 0
 826 0046 0020     		mov	r0, #0
 827              	.LVL63:
 828 0048 00E0     		b	.L41
 829              	.LVL64:
 830              	.L44:
 687:Drivers/STM32L0xx_HAL_Driver/Src/stm32l0xx_hal_rtc_ex.c **** 
 831              		.loc 1 687 0
 832 004a 0220     		mov	r0, #2
 833              	.LVL65:
 834              	.L41:
 738:Drivers/STM32L0xx_HAL_Driver/Src/stm32l0xx_hal_rtc_ex.c **** }
 835              		.loc 1 738 0
 836              		@ sp needed
 837 004c 10BD     		pop	{r4, pc}
 838              	.L46:
 839 004e C046     		.align	2
 840              	.L45:
 841 0050 FBFFFEFF 		.word	-65541
 842 0054 FBFFF7FF 		.word	-524293
 843              		.cfi_endproc
 844              	.LFE42:
 846              		.section	.text.HAL_RTCEx_TimeStampEventCallback,"ax",%progbits
 847              		.align	2
 848              		.weak	HAL_RTCEx_TimeStampEventCallback
 849              		.code	16
 850              		.thumb_func
 852              	HAL_RTCEx_TimeStampEventCallback:
 853              	.LFB44:
 739:Drivers/STM32L0xx_HAL_Driver/Src/stm32l0xx_hal_rtc_ex.c **** 
 740:Drivers/STM32L0xx_HAL_Driver/Src/stm32l0xx_hal_rtc_ex.c **** /**
 741:Drivers/STM32L0xx_HAL_Driver/Src/stm32l0xx_hal_rtc_ex.c ****   * @brief  Handle TimeStamp interrupt request.
 742:Drivers/STM32L0xx_HAL_Driver/Src/stm32l0xx_hal_rtc_ex.c ****   * @param  hrtc: RTC handle
 743:Drivers/STM32L0xx_HAL_Driver/Src/stm32l0xx_hal_rtc_ex.c ****   * @retval None
 744:Drivers/STM32L0xx_HAL_Driver/Src/stm32l0xx_hal_rtc_ex.c ****   */
 745:Drivers/STM32L0xx_HAL_Driver/Src/stm32l0xx_hal_rtc_ex.c **** void HAL_RTCEx_TamperTimeStampIRQHandler(RTC_HandleTypeDef *hrtc)
 746:Drivers/STM32L0xx_HAL_Driver/Src/stm32l0xx_hal_rtc_ex.c **** { 
 747:Drivers/STM32L0xx_HAL_Driver/Src/stm32l0xx_hal_rtc_ex.c ****   /* Get the TimeStamp interrupt source enable status */
 748:Drivers/STM32L0xx_HAL_Driver/Src/stm32l0xx_hal_rtc_ex.c ****   if(__HAL_RTC_TIMESTAMP_GET_IT_SOURCE(hrtc, RTC_IT_TS) != RESET)
ARM GAS  /tmp/ccZ63Pwo.s 			page 29


 749:Drivers/STM32L0xx_HAL_Driver/Src/stm32l0xx_hal_rtc_ex.c ****   {
 750:Drivers/STM32L0xx_HAL_Driver/Src/stm32l0xx_hal_rtc_ex.c ****     /* Get the pending status of the TIMESTAMP Interrupt */
 751:Drivers/STM32L0xx_HAL_Driver/Src/stm32l0xx_hal_rtc_ex.c ****     if(__HAL_RTC_TIMESTAMP_GET_FLAG(hrtc, RTC_FLAG_TSF) != RESET)
 752:Drivers/STM32L0xx_HAL_Driver/Src/stm32l0xx_hal_rtc_ex.c ****     {
 753:Drivers/STM32L0xx_HAL_Driver/Src/stm32l0xx_hal_rtc_ex.c ****       /* TIMESTAMP callback */ 
 754:Drivers/STM32L0xx_HAL_Driver/Src/stm32l0xx_hal_rtc_ex.c ****       HAL_RTCEx_TimeStampEventCallback(hrtc);
 755:Drivers/STM32L0xx_HAL_Driver/Src/stm32l0xx_hal_rtc_ex.c ****       
 756:Drivers/STM32L0xx_HAL_Driver/Src/stm32l0xx_hal_rtc_ex.c ****       /* Clear the TIMESTAMP interrupt pending bit */
 757:Drivers/STM32L0xx_HAL_Driver/Src/stm32l0xx_hal_rtc_ex.c ****       __HAL_RTC_TIMESTAMP_CLEAR_FLAG(hrtc, RTC_FLAG_TSF);
 758:Drivers/STM32L0xx_HAL_Driver/Src/stm32l0xx_hal_rtc_ex.c ****     }
 759:Drivers/STM32L0xx_HAL_Driver/Src/stm32l0xx_hal_rtc_ex.c ****   }
 760:Drivers/STM32L0xx_HAL_Driver/Src/stm32l0xx_hal_rtc_ex.c **** 
 761:Drivers/STM32L0xx_HAL_Driver/Src/stm32l0xx_hal_rtc_ex.c **** #if defined (STM32L063xx) || defined (STM32L062xx) || defined (STM32L061xx) || \
 762:Drivers/STM32L0xx_HAL_Driver/Src/stm32l0xx_hal_rtc_ex.c ****     defined (STM32L053xx) || defined (STM32L052xx) || defined (STM32L051xx) ||\
 763:Drivers/STM32L0xx_HAL_Driver/Src/stm32l0xx_hal_rtc_ex.c ****     defined (STM32L083xx) || defined (STM32L082xx) || defined (STM32L081xx) || \
 764:Drivers/STM32L0xx_HAL_Driver/Src/stm32l0xx_hal_rtc_ex.c ****     defined (STM32L073xx) || defined (STM32L072xx) || defined (STM32L071xx) || \
 765:Drivers/STM32L0xx_HAL_Driver/Src/stm32l0xx_hal_rtc_ex.c ****     defined (STM32L031xx) || defined (STM32L041xx)
 766:Drivers/STM32L0xx_HAL_Driver/Src/stm32l0xx_hal_rtc_ex.c **** 
 767:Drivers/STM32L0xx_HAL_Driver/Src/stm32l0xx_hal_rtc_ex.c ****   /* Get the Tamper1 interrupts source enable status */
 768:Drivers/STM32L0xx_HAL_Driver/Src/stm32l0xx_hal_rtc_ex.c ****   if(__HAL_RTC_TAMPER_GET_IT_SOURCE(hrtc, RTC_IT_TAMP | RTC_IT_TAMP1) != RESET)
 769:Drivers/STM32L0xx_HAL_Driver/Src/stm32l0xx_hal_rtc_ex.c ****   {
 770:Drivers/STM32L0xx_HAL_Driver/Src/stm32l0xx_hal_rtc_ex.c ****     /* Get the pending status of the Tamper1 Interrupt */
 771:Drivers/STM32L0xx_HAL_Driver/Src/stm32l0xx_hal_rtc_ex.c ****     if(__HAL_RTC_TAMPER_GET_FLAG(hrtc, RTC_FLAG_TAMP1F) != RESET)
 772:Drivers/STM32L0xx_HAL_Driver/Src/stm32l0xx_hal_rtc_ex.c ****     {
 773:Drivers/STM32L0xx_HAL_Driver/Src/stm32l0xx_hal_rtc_ex.c ****       /* Tamper1 callback */
 774:Drivers/STM32L0xx_HAL_Driver/Src/stm32l0xx_hal_rtc_ex.c ****       HAL_RTCEx_Tamper1EventCallback(hrtc);
 775:Drivers/STM32L0xx_HAL_Driver/Src/stm32l0xx_hal_rtc_ex.c **** 
 776:Drivers/STM32L0xx_HAL_Driver/Src/stm32l0xx_hal_rtc_ex.c ****       /* Clear the Tamper1 interrupt pending bit */
 777:Drivers/STM32L0xx_HAL_Driver/Src/stm32l0xx_hal_rtc_ex.c ****       __HAL_RTC_TAMPER_CLEAR_FLAG(hrtc, RTC_FLAG_TAMP1F);
 778:Drivers/STM32L0xx_HAL_Driver/Src/stm32l0xx_hal_rtc_ex.c ****     }
 779:Drivers/STM32L0xx_HAL_Driver/Src/stm32l0xx_hal_rtc_ex.c ****   }
 780:Drivers/STM32L0xx_HAL_Driver/Src/stm32l0xx_hal_rtc_ex.c **** #endif /* (STM32L063xx) || (STM32L062xx) || (STM32L061xx) ||
 781:Drivers/STM32L0xx_HAL_Driver/Src/stm32l0xx_hal_rtc_ex.c ****         * (STM32L053xx) || (STM32L052xx) || (STM32L051xx) ||
 782:Drivers/STM32L0xx_HAL_Driver/Src/stm32l0xx_hal_rtc_ex.c ****         * (STM32L083xx) || (STM32L082xx) || (STM32L081xx) ||
 783:Drivers/STM32L0xx_HAL_Driver/Src/stm32l0xx_hal_rtc_ex.c ****         * (STM32L073xx) || (STM32L072xx) || (STM32L071xx) || 
 784:Drivers/STM32L0xx_HAL_Driver/Src/stm32l0xx_hal_rtc_ex.c ****         * (STM32L031xx) || (STM32L041xx)
 785:Drivers/STM32L0xx_HAL_Driver/Src/stm32l0xx_hal_rtc_ex.c ****         */
 786:Drivers/STM32L0xx_HAL_Driver/Src/stm32l0xx_hal_rtc_ex.c **** 
 787:Drivers/STM32L0xx_HAL_Driver/Src/stm32l0xx_hal_rtc_ex.c ****   /* Get the Tamper2 interrupts source enable status */
 788:Drivers/STM32L0xx_HAL_Driver/Src/stm32l0xx_hal_rtc_ex.c ****   if(__HAL_RTC_TAMPER_GET_IT_SOURCE(hrtc, RTC_IT_TAMP | RTC_IT_TAMP2) != RESET)
 789:Drivers/STM32L0xx_HAL_Driver/Src/stm32l0xx_hal_rtc_ex.c ****   {
 790:Drivers/STM32L0xx_HAL_Driver/Src/stm32l0xx_hal_rtc_ex.c ****     /* Get the pending status of the Tamper2 Interrupt */
 791:Drivers/STM32L0xx_HAL_Driver/Src/stm32l0xx_hal_rtc_ex.c ****     if(__HAL_RTC_TAMPER_GET_FLAG(hrtc, RTC_FLAG_TAMP2F) != RESET)
 792:Drivers/STM32L0xx_HAL_Driver/Src/stm32l0xx_hal_rtc_ex.c ****     {
 793:Drivers/STM32L0xx_HAL_Driver/Src/stm32l0xx_hal_rtc_ex.c ****       /* Tamper2 callback */
 794:Drivers/STM32L0xx_HAL_Driver/Src/stm32l0xx_hal_rtc_ex.c ****       HAL_RTCEx_Tamper2EventCallback(hrtc);
 795:Drivers/STM32L0xx_HAL_Driver/Src/stm32l0xx_hal_rtc_ex.c **** 
 796:Drivers/STM32L0xx_HAL_Driver/Src/stm32l0xx_hal_rtc_ex.c ****       /* Clear the Tamper2 interrupt pending bit */
 797:Drivers/STM32L0xx_HAL_Driver/Src/stm32l0xx_hal_rtc_ex.c ****       __HAL_RTC_TAMPER_CLEAR_FLAG(hrtc, RTC_FLAG_TAMP2F);
 798:Drivers/STM32L0xx_HAL_Driver/Src/stm32l0xx_hal_rtc_ex.c ****     }
 799:Drivers/STM32L0xx_HAL_Driver/Src/stm32l0xx_hal_rtc_ex.c ****   }
 800:Drivers/STM32L0xx_HAL_Driver/Src/stm32l0xx_hal_rtc_ex.c **** 
 801:Drivers/STM32L0xx_HAL_Driver/Src/stm32l0xx_hal_rtc_ex.c **** #if defined (STM32L083xx) || defined (STM32L082xx) || defined (STM32L081xx) || \
 802:Drivers/STM32L0xx_HAL_Driver/Src/stm32l0xx_hal_rtc_ex.c ****     defined (STM32L073xx) || defined (STM32L072xx) || defined (STM32L071xx) || \
 803:Drivers/STM32L0xx_HAL_Driver/Src/stm32l0xx_hal_rtc_ex.c ****     defined (STM32L031xx) || defined (STM32L041xx) || defined (STM32L011xx) || defined (STM32L021xx
 804:Drivers/STM32L0xx_HAL_Driver/Src/stm32l0xx_hal_rtc_ex.c ****     
 805:Drivers/STM32L0xx_HAL_Driver/Src/stm32l0xx_hal_rtc_ex.c ****   /* Get the Tamper3 interrupts source enable status */
ARM GAS  /tmp/ccZ63Pwo.s 			page 30


 806:Drivers/STM32L0xx_HAL_Driver/Src/stm32l0xx_hal_rtc_ex.c ****   if(__HAL_RTC_TAMPER_GET_IT_SOURCE(hrtc, RTC_IT_TAMP | RTC_IT_TAMP3) != RESET)
 807:Drivers/STM32L0xx_HAL_Driver/Src/stm32l0xx_hal_rtc_ex.c ****   {
 808:Drivers/STM32L0xx_HAL_Driver/Src/stm32l0xx_hal_rtc_ex.c ****     /* Get the pending status of the Tamper3 Interrupt */
 809:Drivers/STM32L0xx_HAL_Driver/Src/stm32l0xx_hal_rtc_ex.c ****     if(__HAL_RTC_TAMPER_GET_FLAG(hrtc, RTC_FLAG_TAMP3F) != RESET)
 810:Drivers/STM32L0xx_HAL_Driver/Src/stm32l0xx_hal_rtc_ex.c ****     {
 811:Drivers/STM32L0xx_HAL_Driver/Src/stm32l0xx_hal_rtc_ex.c ****       /* Tamper3 callback */
 812:Drivers/STM32L0xx_HAL_Driver/Src/stm32l0xx_hal_rtc_ex.c ****       HAL_RTCEx_Tamper3EventCallback(hrtc);
 813:Drivers/STM32L0xx_HAL_Driver/Src/stm32l0xx_hal_rtc_ex.c **** 
 814:Drivers/STM32L0xx_HAL_Driver/Src/stm32l0xx_hal_rtc_ex.c ****       /* Clear the Tamper3 interrupt pending bit */
 815:Drivers/STM32L0xx_HAL_Driver/Src/stm32l0xx_hal_rtc_ex.c ****       __HAL_RTC_TAMPER_CLEAR_FLAG(hrtc, RTC_FLAG_TAMP3F);
 816:Drivers/STM32L0xx_HAL_Driver/Src/stm32l0xx_hal_rtc_ex.c ****     }
 817:Drivers/STM32L0xx_HAL_Driver/Src/stm32l0xx_hal_rtc_ex.c ****   }
 818:Drivers/STM32L0xx_HAL_Driver/Src/stm32l0xx_hal_rtc_ex.c ****   
 819:Drivers/STM32L0xx_HAL_Driver/Src/stm32l0xx_hal_rtc_ex.c **** #endif /* (STM32L083xx) || (STM32L082xx) || (STM32L081xx) ||
 820:Drivers/STM32L0xx_HAL_Driver/Src/stm32l0xx_hal_rtc_ex.c ****         * (STM32L073xx) || (STM32L072xx) || (STM32L071xx) || (STM32L031xx) || (STM32L041xx) ||
 821:Drivers/STM32L0xx_HAL_Driver/Src/stm32l0xx_hal_rtc_ex.c **** 	    * (STM32L011xx) || (STM32L021xx)
 822:Drivers/STM32L0xx_HAL_Driver/Src/stm32l0xx_hal_rtc_ex.c ****         */
 823:Drivers/STM32L0xx_HAL_Driver/Src/stm32l0xx_hal_rtc_ex.c **** 
 824:Drivers/STM32L0xx_HAL_Driver/Src/stm32l0xx_hal_rtc_ex.c ****   /* Clear the EXTI's Flag for RTC TimeStamp and Tamper */
 825:Drivers/STM32L0xx_HAL_Driver/Src/stm32l0xx_hal_rtc_ex.c ****   __HAL_RTC_TAMPER_TIMESTAMP_EXTI_CLEAR_FLAG();
 826:Drivers/STM32L0xx_HAL_Driver/Src/stm32l0xx_hal_rtc_ex.c **** 
 827:Drivers/STM32L0xx_HAL_Driver/Src/stm32l0xx_hal_rtc_ex.c ****   /* Change RTC state */
 828:Drivers/STM32L0xx_HAL_Driver/Src/stm32l0xx_hal_rtc_ex.c ****   hrtc->State = HAL_RTC_STATE_READY;
 829:Drivers/STM32L0xx_HAL_Driver/Src/stm32l0xx_hal_rtc_ex.c **** }
 830:Drivers/STM32L0xx_HAL_Driver/Src/stm32l0xx_hal_rtc_ex.c **** 
 831:Drivers/STM32L0xx_HAL_Driver/Src/stm32l0xx_hal_rtc_ex.c **** /**
 832:Drivers/STM32L0xx_HAL_Driver/Src/stm32l0xx_hal_rtc_ex.c ****   * @brief  TimeStamp callback. 
 833:Drivers/STM32L0xx_HAL_Driver/Src/stm32l0xx_hal_rtc_ex.c ****   * @param  hrtc: RTC handle
 834:Drivers/STM32L0xx_HAL_Driver/Src/stm32l0xx_hal_rtc_ex.c ****   * @retval None
 835:Drivers/STM32L0xx_HAL_Driver/Src/stm32l0xx_hal_rtc_ex.c ****   */
 836:Drivers/STM32L0xx_HAL_Driver/Src/stm32l0xx_hal_rtc_ex.c **** __weak void HAL_RTCEx_TimeStampEventCallback(RTC_HandleTypeDef *hrtc)
 837:Drivers/STM32L0xx_HAL_Driver/Src/stm32l0xx_hal_rtc_ex.c **** {
 854              		.loc 1 837 0
 855              		.cfi_startproc
 856              	.LVL66:
 838:Drivers/STM32L0xx_HAL_Driver/Src/stm32l0xx_hal_rtc_ex.c ****   /* Prevent unused argument(s) compilation warning */
 839:Drivers/STM32L0xx_HAL_Driver/Src/stm32l0xx_hal_rtc_ex.c ****   UNUSED(hrtc);
 840:Drivers/STM32L0xx_HAL_Driver/Src/stm32l0xx_hal_rtc_ex.c **** 
 841:Drivers/STM32L0xx_HAL_Driver/Src/stm32l0xx_hal_rtc_ex.c ****   /* NOTE : This function should not be modified, when the callback is needed,
 842:Drivers/STM32L0xx_HAL_Driver/Src/stm32l0xx_hal_rtc_ex.c ****             the HAL_RTCEx_TimeStampEventCallback could be implemented in the user file
 843:Drivers/STM32L0xx_HAL_Driver/Src/stm32l0xx_hal_rtc_ex.c ****   */
 844:Drivers/STM32L0xx_HAL_Driver/Src/stm32l0xx_hal_rtc_ex.c **** }
 857              		.loc 1 844 0
 858              		@ sp needed
 859 0000 7047     		bx	lr
 860              		.cfi_endproc
 861              	.LFE44:
 863 0002 C046     		.section	.text.HAL_RTCEx_Tamper1EventCallback,"ax",%progbits
 864              		.align	2
 865              		.weak	HAL_RTCEx_Tamper1EventCallback
 866              		.code	16
 867              		.thumb_func
 869              	HAL_RTCEx_Tamper1EventCallback:
 870              	.LFB45:
 845:Drivers/STM32L0xx_HAL_Driver/Src/stm32l0xx_hal_rtc_ex.c **** 
 846:Drivers/STM32L0xx_HAL_Driver/Src/stm32l0xx_hal_rtc_ex.c **** /**
 847:Drivers/STM32L0xx_HAL_Driver/Src/stm32l0xx_hal_rtc_ex.c ****   * @brief  Tamper 1 callback.
ARM GAS  /tmp/ccZ63Pwo.s 			page 31


 848:Drivers/STM32L0xx_HAL_Driver/Src/stm32l0xx_hal_rtc_ex.c ****   * @param  hrtc: RTC handle
 849:Drivers/STM32L0xx_HAL_Driver/Src/stm32l0xx_hal_rtc_ex.c ****   * @retval None
 850:Drivers/STM32L0xx_HAL_Driver/Src/stm32l0xx_hal_rtc_ex.c ****   */
 851:Drivers/STM32L0xx_HAL_Driver/Src/stm32l0xx_hal_rtc_ex.c **** __weak void HAL_RTCEx_Tamper1EventCallback(RTC_HandleTypeDef *hrtc)
 852:Drivers/STM32L0xx_HAL_Driver/Src/stm32l0xx_hal_rtc_ex.c **** {
 871              		.loc 1 852 0
 872              		.cfi_startproc
 873              	.LVL67:
 853:Drivers/STM32L0xx_HAL_Driver/Src/stm32l0xx_hal_rtc_ex.c ****   /* Prevent unused argument(s) compilation warning */
 854:Drivers/STM32L0xx_HAL_Driver/Src/stm32l0xx_hal_rtc_ex.c ****   UNUSED(hrtc);
 855:Drivers/STM32L0xx_HAL_Driver/Src/stm32l0xx_hal_rtc_ex.c **** 
 856:Drivers/STM32L0xx_HAL_Driver/Src/stm32l0xx_hal_rtc_ex.c ****   /* NOTE : This function should not be modified, when the callback is needed,
 857:Drivers/STM32L0xx_HAL_Driver/Src/stm32l0xx_hal_rtc_ex.c ****             the HAL_RTCEx_Tamper1EventCallback could be implemented in the user file
 858:Drivers/STM32L0xx_HAL_Driver/Src/stm32l0xx_hal_rtc_ex.c ****    */
 859:Drivers/STM32L0xx_HAL_Driver/Src/stm32l0xx_hal_rtc_ex.c **** }
 874              		.loc 1 859 0
 875              		@ sp needed
 876 0000 7047     		bx	lr
 877              		.cfi_endproc
 878              	.LFE45:
 880 0002 C046     		.section	.text.HAL_RTCEx_Tamper2EventCallback,"ax",%progbits
 881              		.align	2
 882              		.weak	HAL_RTCEx_Tamper2EventCallback
 883              		.code	16
 884              		.thumb_func
 886              	HAL_RTCEx_Tamper2EventCallback:
 887              	.LFB46:
 860:Drivers/STM32L0xx_HAL_Driver/Src/stm32l0xx_hal_rtc_ex.c **** 
 861:Drivers/STM32L0xx_HAL_Driver/Src/stm32l0xx_hal_rtc_ex.c **** /**
 862:Drivers/STM32L0xx_HAL_Driver/Src/stm32l0xx_hal_rtc_ex.c ****   * @brief  Tamper 2 callback. 
 863:Drivers/STM32L0xx_HAL_Driver/Src/stm32l0xx_hal_rtc_ex.c ****   * @param  hrtc: RTC handle
 864:Drivers/STM32L0xx_HAL_Driver/Src/stm32l0xx_hal_rtc_ex.c ****   * @retval None
 865:Drivers/STM32L0xx_HAL_Driver/Src/stm32l0xx_hal_rtc_ex.c ****   */
 866:Drivers/STM32L0xx_HAL_Driver/Src/stm32l0xx_hal_rtc_ex.c **** __weak void HAL_RTCEx_Tamper2EventCallback(RTC_HandleTypeDef *hrtc)
 867:Drivers/STM32L0xx_HAL_Driver/Src/stm32l0xx_hal_rtc_ex.c **** {
 888              		.loc 1 867 0
 889              		.cfi_startproc
 890              	.LVL68:
 868:Drivers/STM32L0xx_HAL_Driver/Src/stm32l0xx_hal_rtc_ex.c ****   /* Prevent unused argument(s) compilation warning */
 869:Drivers/STM32L0xx_HAL_Driver/Src/stm32l0xx_hal_rtc_ex.c ****   UNUSED(hrtc);
 870:Drivers/STM32L0xx_HAL_Driver/Src/stm32l0xx_hal_rtc_ex.c **** 
 871:Drivers/STM32L0xx_HAL_Driver/Src/stm32l0xx_hal_rtc_ex.c ****   /* NOTE : This function should not be modified, when the callback is needed,
 872:Drivers/STM32L0xx_HAL_Driver/Src/stm32l0xx_hal_rtc_ex.c ****             the HAL_RTCEx_Tamper2EventCallback could be implemented in the user file
 873:Drivers/STM32L0xx_HAL_Driver/Src/stm32l0xx_hal_rtc_ex.c ****    */
 874:Drivers/STM32L0xx_HAL_Driver/Src/stm32l0xx_hal_rtc_ex.c **** }
 891              		.loc 1 874 0
 892              		@ sp needed
 893 0000 7047     		bx	lr
 894              		.cfi_endproc
 895              	.LFE46:
 897 0002 C046     		.section	.text.HAL_RTCEx_TamperTimeStampIRQHandler,"ax",%progbits
 898              		.align	2
 899              		.global	HAL_RTCEx_TamperTimeStampIRQHandler
 900              		.code	16
 901              		.thumb_func
 903              	HAL_RTCEx_TamperTimeStampIRQHandler:
 904              	.LFB43:
ARM GAS  /tmp/ccZ63Pwo.s 			page 32


 746:Drivers/STM32L0xx_HAL_Driver/Src/stm32l0xx_hal_rtc_ex.c ****   /* Get the TimeStamp interrupt source enable status */
 905              		.loc 1 746 0
 906              		.cfi_startproc
 907              	.LVL69:
 908 0000 10B5     		push	{r4, lr}
 909              	.LCFI7:
 910              		.cfi_def_cfa_offset 8
 911              		.cfi_offset 4, -8
 912              		.cfi_offset 14, -4
 913 0002 041C     		mov	r4, r0
 748:Drivers/STM32L0xx_HAL_Driver/Src/stm32l0xx_hal_rtc_ex.c ****   {
 914              		.loc 1 748 0
 915 0004 0368     		ldr	r3, [r0]
 916 0006 9A68     		ldr	r2, [r3, #8]
 917 0008 1204     		lsl	r2, r2, #16
 918 000a 0BD5     		bpl	.L51
 751:Drivers/STM32L0xx_HAL_Driver/Src/stm32l0xx_hal_rtc_ex.c ****     {
 919              		.loc 1 751 0
 920 000c DB68     		ldr	r3, [r3, #12]
 921 000e 1B05     		lsl	r3, r3, #20
 922 0010 08D5     		bpl	.L51
 754:Drivers/STM32L0xx_HAL_Driver/Src/stm32l0xx_hal_rtc_ex.c ****       
 923              		.loc 1 754 0
 924 0012 FFF7FEFF 		bl	HAL_RTCEx_TimeStampEventCallback
 925              	.LVL70:
 757:Drivers/STM32L0xx_HAL_Driver/Src/stm32l0xx_hal_rtc_ex.c ****     }
 926              		.loc 1 757 0
 927 0016 2268     		ldr	r2, [r4]
 928 0018 D368     		ldr	r3, [r2, #12]
 929 001a FF21     		mov	r1, #255
 930 001c 0B40     		and	r3, r1
 931 001e 1749     		ldr	r1, .L54
 932 0020 0B43     		orr	r3, r1
 933 0022 D360     		str	r3, [r2, #12]
 934              	.L51:
 768:Drivers/STM32L0xx_HAL_Driver/Src/stm32l0xx_hal_rtc_ex.c ****   {
 935              		.loc 1 768 0
 936 0024 2368     		ldr	r3, [r4]
 937 0026 196C     		ldr	r1, [r3, #64]
 938 0028 154A     		ldr	r2, .L54+4
 939 002a 1142     		tst	r1, r2
 940 002c 0CD0     		beq	.L52
 771:Drivers/STM32L0xx_HAL_Driver/Src/stm32l0xx_hal_rtc_ex.c ****     {
 941              		.loc 1 771 0
 942 002e DB68     		ldr	r3, [r3, #12]
 943 0030 9B04     		lsl	r3, r3, #18
 944 0032 09D5     		bpl	.L52
 774:Drivers/STM32L0xx_HAL_Driver/Src/stm32l0xx_hal_rtc_ex.c **** 
 945              		.loc 1 774 0
 946 0034 201C     		mov	r0, r4
 947 0036 FFF7FEFF 		bl	HAL_RTCEx_Tamper1EventCallback
 948              	.LVL71:
 777:Drivers/STM32L0xx_HAL_Driver/Src/stm32l0xx_hal_rtc_ex.c ****     }
 949              		.loc 1 777 0
 950 003a 2268     		ldr	r2, [r4]
 951 003c D368     		ldr	r3, [r2, #12]
 952 003e FF21     		mov	r1, #255
ARM GAS  /tmp/ccZ63Pwo.s 			page 33


 953 0040 0B40     		and	r3, r1
 954 0042 1049     		ldr	r1, .L54+8
 955 0044 0B43     		orr	r3, r1
 956 0046 D360     		str	r3, [r2, #12]
 957              	.L52:
 788:Drivers/STM32L0xx_HAL_Driver/Src/stm32l0xx_hal_rtc_ex.c ****   {
 958              		.loc 1 788 0
 959 0048 2368     		ldr	r3, [r4]
 960 004a 196C     		ldr	r1, [r3, #64]
 961 004c 0E4A     		ldr	r2, .L54+12
 962 004e 1142     		tst	r1, r2
 963 0050 0CD0     		beq	.L53
 791:Drivers/STM32L0xx_HAL_Driver/Src/stm32l0xx_hal_rtc_ex.c ****     {
 964              		.loc 1 791 0
 965 0052 DB68     		ldr	r3, [r3, #12]
 966 0054 5B04     		lsl	r3, r3, #17
 967 0056 09D5     		bpl	.L53
 794:Drivers/STM32L0xx_HAL_Driver/Src/stm32l0xx_hal_rtc_ex.c **** 
 968              		.loc 1 794 0
 969 0058 201C     		mov	r0, r4
 970 005a FFF7FEFF 		bl	HAL_RTCEx_Tamper2EventCallback
 971              	.LVL72:
 797:Drivers/STM32L0xx_HAL_Driver/Src/stm32l0xx_hal_rtc_ex.c ****     }
 972              		.loc 1 797 0
 973 005e 2268     		ldr	r2, [r4]
 974 0060 D368     		ldr	r3, [r2, #12]
 975 0062 FF21     		mov	r1, #255
 976 0064 0B40     		and	r3, r1
 977 0066 0949     		ldr	r1, .L54+16
 978 0068 0B43     		orr	r3, r1
 979 006a D360     		str	r3, [r2, #12]
 980              	.L53:
 825:Drivers/STM32L0xx_HAL_Driver/Src/stm32l0xx_hal_rtc_ex.c **** 
 981              		.loc 1 825 0
 982 006c 8022     		mov	r2, #128
 983 006e 1203     		lsl	r2, r2, #12
 984 0070 074B     		ldr	r3, .L54+20
 985 0072 5A61     		str	r2, [r3, #20]
 828:Drivers/STM32L0xx_HAL_Driver/Src/stm32l0xx_hal_rtc_ex.c **** }
 986              		.loc 1 828 0
 987 0074 0122     		mov	r2, #1
 988 0076 2123     		mov	r3, #33
 989 0078 E254     		strb	r2, [r4, r3]
 829:Drivers/STM32L0xx_HAL_Driver/Src/stm32l0xx_hal_rtc_ex.c **** 
 990              		.loc 1 829 0
 991              		@ sp needed
 992              	.LVL73:
 993 007a 10BD     		pop	{r4, pc}
 994              	.L55:
 995              		.align	2
 996              	.L54:
 997 007c 7FF7FFFF 		.word	-2177
 998 0080 04000100 		.word	65540
 999 0084 7FDFFFFF 		.word	-8321
 1000 0088 04000800 		.word	524292
 1001 008c 7FBFFFFF 		.word	-16513
 1002 0090 00040140 		.word	1073808384
ARM GAS  /tmp/ccZ63Pwo.s 			page 34


 1003              		.cfi_endproc
 1004              	.LFE43:
 1006              		.section	.text.HAL_RTCEx_PollForTimeStampEvent,"ax",%progbits
 1007              		.align	2
 1008              		.global	HAL_RTCEx_PollForTimeStampEvent
 1009              		.code	16
 1010              		.thumb_func
 1012              	HAL_RTCEx_PollForTimeStampEvent:
 1013              	.LFB47:
 875:Drivers/STM32L0xx_HAL_Driver/Src/stm32l0xx_hal_rtc_ex.c **** 
 876:Drivers/STM32L0xx_HAL_Driver/Src/stm32l0xx_hal_rtc_ex.c **** 
 877:Drivers/STM32L0xx_HAL_Driver/Src/stm32l0xx_hal_rtc_ex.c **** #if defined (STM32L083xx) || defined (STM32L082xx) || defined (STM32L081xx) || \
 878:Drivers/STM32L0xx_HAL_Driver/Src/stm32l0xx_hal_rtc_ex.c ****     defined (STM32L073xx) || defined (STM32L072xx) || defined (STM32L071xx) || \
 879:Drivers/STM32L0xx_HAL_Driver/Src/stm32l0xx_hal_rtc_ex.c ****     defined (STM32L031xx) || defined (STM32L041xx) || defined (STM32L011xx) || defined (STM32L021xx
 880:Drivers/STM32L0xx_HAL_Driver/Src/stm32l0xx_hal_rtc_ex.c ****     
 881:Drivers/STM32L0xx_HAL_Driver/Src/stm32l0xx_hal_rtc_ex.c **** /**
 882:Drivers/STM32L0xx_HAL_Driver/Src/stm32l0xx_hal_rtc_ex.c ****   * @brief  Tamper 3 callback. 
 883:Drivers/STM32L0xx_HAL_Driver/Src/stm32l0xx_hal_rtc_ex.c ****   * @param  hrtc: RTC handle
 884:Drivers/STM32L0xx_HAL_Driver/Src/stm32l0xx_hal_rtc_ex.c ****   * @retval None
 885:Drivers/STM32L0xx_HAL_Driver/Src/stm32l0xx_hal_rtc_ex.c ****   */
 886:Drivers/STM32L0xx_HAL_Driver/Src/stm32l0xx_hal_rtc_ex.c **** __weak void HAL_RTCEx_Tamper3EventCallback(RTC_HandleTypeDef *hrtc)
 887:Drivers/STM32L0xx_HAL_Driver/Src/stm32l0xx_hal_rtc_ex.c **** {
 888:Drivers/STM32L0xx_HAL_Driver/Src/stm32l0xx_hal_rtc_ex.c ****   /* Prevent unused argument(s) compilation warning */
 889:Drivers/STM32L0xx_HAL_Driver/Src/stm32l0xx_hal_rtc_ex.c ****   UNUSED(hrtc);
 890:Drivers/STM32L0xx_HAL_Driver/Src/stm32l0xx_hal_rtc_ex.c **** 
 891:Drivers/STM32L0xx_HAL_Driver/Src/stm32l0xx_hal_rtc_ex.c ****   /* NOTE : This function should not be modified, when the callback is needed,
 892:Drivers/STM32L0xx_HAL_Driver/Src/stm32l0xx_hal_rtc_ex.c ****             the HAL_RTCEx_Tamper3EventCallback could be implemented in the user file
 893:Drivers/STM32L0xx_HAL_Driver/Src/stm32l0xx_hal_rtc_ex.c ****    */
 894:Drivers/STM32L0xx_HAL_Driver/Src/stm32l0xx_hal_rtc_ex.c **** }
 895:Drivers/STM32L0xx_HAL_Driver/Src/stm32l0xx_hal_rtc_ex.c **** 
 896:Drivers/STM32L0xx_HAL_Driver/Src/stm32l0xx_hal_rtc_ex.c **** #endif /* (STM32L083xx) || (STM32L082xx) || (STM32L081xx) ||
 897:Drivers/STM32L0xx_HAL_Driver/Src/stm32l0xx_hal_rtc_ex.c ****     * (STM32L073xx) || (STM32L072xx) || (STM32L071xx) || (STM32L031xx) || (STM32L041xx) || (STM32L0
 898:Drivers/STM32L0xx_HAL_Driver/Src/stm32l0xx_hal_rtc_ex.c ****     */
 899:Drivers/STM32L0xx_HAL_Driver/Src/stm32l0xx_hal_rtc_ex.c **** 
 900:Drivers/STM32L0xx_HAL_Driver/Src/stm32l0xx_hal_rtc_ex.c **** 
 901:Drivers/STM32L0xx_HAL_Driver/Src/stm32l0xx_hal_rtc_ex.c **** /**
 902:Drivers/STM32L0xx_HAL_Driver/Src/stm32l0xx_hal_rtc_ex.c ****   * @brief  Handle TimeStamp polling request.
 903:Drivers/STM32L0xx_HAL_Driver/Src/stm32l0xx_hal_rtc_ex.c ****   * @param  hrtc: RTC handle
 904:Drivers/STM32L0xx_HAL_Driver/Src/stm32l0xx_hal_rtc_ex.c ****   * @param  Timeout: Timeout duration
 905:Drivers/STM32L0xx_HAL_Driver/Src/stm32l0xx_hal_rtc_ex.c ****   * @retval HAL status
 906:Drivers/STM32L0xx_HAL_Driver/Src/stm32l0xx_hal_rtc_ex.c ****   */
 907:Drivers/STM32L0xx_HAL_Driver/Src/stm32l0xx_hal_rtc_ex.c **** HAL_StatusTypeDef HAL_RTCEx_PollForTimeStampEvent(RTC_HandleTypeDef *hrtc, uint32_t Timeout)
 908:Drivers/STM32L0xx_HAL_Driver/Src/stm32l0xx_hal_rtc_ex.c **** { 
 1014              		.loc 1 908 0
 1015              		.cfi_startproc
 1016              	.LVL74:
 1017 0000 70B5     		push	{r4, r5, r6, lr}
 1018              	.LCFI8:
 1019              		.cfi_def_cfa_offset 16
 1020              		.cfi_offset 4, -16
 1021              		.cfi_offset 5, -12
 1022              		.cfi_offset 6, -8
 1023              		.cfi_offset 14, -4
 1024 0002 051C     		mov	r5, r0
 1025 0004 0E1C     		mov	r6, r1
 909:Drivers/STM32L0xx_HAL_Driver/Src/stm32l0xx_hal_rtc_ex.c ****   uint32_t tickstart = HAL_GetTick();
 1026              		.loc 1 909 0
ARM GAS  /tmp/ccZ63Pwo.s 			page 35


 1027 0006 FFF7FEFF 		bl	HAL_GetTick
 1028              	.LVL75:
 1029 000a 041C     		mov	r4, r0
 1030              	.LVL76:
 910:Drivers/STM32L0xx_HAL_Driver/Src/stm32l0xx_hal_rtc_ex.c **** 
 911:Drivers/STM32L0xx_HAL_Driver/Src/stm32l0xx_hal_rtc_ex.c ****   while(__HAL_RTC_TIMESTAMP_GET_FLAG(hrtc, RTC_FLAG_TSF) == RESET)
 1031              		.loc 1 911 0
 1032 000c 1BE0     		b	.L60
 1033              	.LVL77:
 1034              	.L62:
 912:Drivers/STM32L0xx_HAL_Driver/Src/stm32l0xx_hal_rtc_ex.c ****   {
 913:Drivers/STM32L0xx_HAL_Driver/Src/stm32l0xx_hal_rtc_ex.c ****     if(__HAL_RTC_TIMESTAMP_GET_FLAG(hrtc, RTC_FLAG_TSOVF) != RESET)
 1035              		.loc 1 913 0
 1036 000e DA68     		ldr	r2, [r3, #12]
 1037 0010 D204     		lsl	r2, r2, #19
 1038 0012 0AD5     		bpl	.L58
 914:Drivers/STM32L0xx_HAL_Driver/Src/stm32l0xx_hal_rtc_ex.c ****     {
 915:Drivers/STM32L0xx_HAL_Driver/Src/stm32l0xx_hal_rtc_ex.c ****       /* Clear the TIMESTAMP OverRun Flag */
 916:Drivers/STM32L0xx_HAL_Driver/Src/stm32l0xx_hal_rtc_ex.c ****       __HAL_RTC_TIMESTAMP_CLEAR_FLAG(hrtc, RTC_FLAG_TSOVF);
 1039              		.loc 1 916 0
 1040 0014 DA68     		ldr	r2, [r3, #12]
 1041 0016 FF21     		mov	r1, #255
 1042 0018 0A40     		and	r2, r1
 1043 001a 0F49     		ldr	r1, .L63
 1044 001c 0A43     		orr	r2, r1
 1045 001e DA60     		str	r2, [r3, #12]
 917:Drivers/STM32L0xx_HAL_Driver/Src/stm32l0xx_hal_rtc_ex.c **** 
 918:Drivers/STM32L0xx_HAL_Driver/Src/stm32l0xx_hal_rtc_ex.c ****       /* Change TIMESTAMP state */
 919:Drivers/STM32L0xx_HAL_Driver/Src/stm32l0xx_hal_rtc_ex.c ****       hrtc->State = HAL_RTC_STATE_ERROR; 
 1046              		.loc 1 919 0
 1047 0020 0422     		mov	r2, #4
 1048 0022 2123     		mov	r3, #33
 1049 0024 EA54     		strb	r2, [r5, r3]
 920:Drivers/STM32L0xx_HAL_Driver/Src/stm32l0xx_hal_rtc_ex.c **** 
 921:Drivers/STM32L0xx_HAL_Driver/Src/stm32l0xx_hal_rtc_ex.c ****       return HAL_ERROR; 
 1050              		.loc 1 921 0
 1051 0026 0120     		mov	r0, #1
 1052 0028 15E0     		b	.L59
 1053              	.L58:
 922:Drivers/STM32L0xx_HAL_Driver/Src/stm32l0xx_hal_rtc_ex.c ****     }
 923:Drivers/STM32L0xx_HAL_Driver/Src/stm32l0xx_hal_rtc_ex.c **** 
 924:Drivers/STM32L0xx_HAL_Driver/Src/stm32l0xx_hal_rtc_ex.c ****     if(Timeout != HAL_MAX_DELAY)
 1054              		.loc 1 924 0
 1055 002a 731C     		add	r3, r6, #1
 1056 002c 0BD0     		beq	.L60
 925:Drivers/STM32L0xx_HAL_Driver/Src/stm32l0xx_hal_rtc_ex.c ****     {
 926:Drivers/STM32L0xx_HAL_Driver/Src/stm32l0xx_hal_rtc_ex.c ****       if((Timeout == 0U)||((HAL_GetTick() - tickstart ) > Timeout))
 1057              		.loc 1 926 0
 1058 002e 002E     		cmp	r6, #0
 1059 0030 04D0     		beq	.L61
 1060              		.loc 1 926 0 is_stmt 0 discriminator 1
 1061 0032 FFF7FEFF 		bl	HAL_GetTick
 1062              	.LVL78:
 1063 0036 001B     		sub	r0, r0, r4
 1064 0038 B042     		cmp	r0, r6
 1065 003a 04D9     		bls	.L60
 1066              	.L61:
ARM GAS  /tmp/ccZ63Pwo.s 			page 36


 927:Drivers/STM32L0xx_HAL_Driver/Src/stm32l0xx_hal_rtc_ex.c ****       {
 928:Drivers/STM32L0xx_HAL_Driver/Src/stm32l0xx_hal_rtc_ex.c ****         hrtc->State = HAL_RTC_STATE_TIMEOUT;
 1067              		.loc 1 928 0 is_stmt 1
 1068 003c 0322     		mov	r2, #3
 1069 003e 2123     		mov	r3, #33
 1070 0040 EA54     		strb	r2, [r5, r3]
 929:Drivers/STM32L0xx_HAL_Driver/Src/stm32l0xx_hal_rtc_ex.c ****         return HAL_TIMEOUT;
 1071              		.loc 1 929 0
 1072 0042 0320     		mov	r0, #3
 1073 0044 07E0     		b	.L59
 1074              	.L60:
 911:Drivers/STM32L0xx_HAL_Driver/Src/stm32l0xx_hal_rtc_ex.c ****   {
 1075              		.loc 1 911 0
 1076 0046 2B68     		ldr	r3, [r5]
 1077 0048 DA68     		ldr	r2, [r3, #12]
 1078 004a 1205     		lsl	r2, r2, #20
 1079 004c DFD5     		bpl	.L62
 930:Drivers/STM32L0xx_HAL_Driver/Src/stm32l0xx_hal_rtc_ex.c ****       }
 931:Drivers/STM32L0xx_HAL_Driver/Src/stm32l0xx_hal_rtc_ex.c ****     }
 932:Drivers/STM32L0xx_HAL_Driver/Src/stm32l0xx_hal_rtc_ex.c ****   }
 933:Drivers/STM32L0xx_HAL_Driver/Src/stm32l0xx_hal_rtc_ex.c **** 
 934:Drivers/STM32L0xx_HAL_Driver/Src/stm32l0xx_hal_rtc_ex.c ****   /* Change RTC state */
 935:Drivers/STM32L0xx_HAL_Driver/Src/stm32l0xx_hal_rtc_ex.c ****   hrtc->State = HAL_RTC_STATE_READY;
 1080              		.loc 1 935 0
 1081 004e 0122     		mov	r2, #1
 1082 0050 2123     		mov	r3, #33
 1083 0052 EA54     		strb	r2, [r5, r3]
 936:Drivers/STM32L0xx_HAL_Driver/Src/stm32l0xx_hal_rtc_ex.c ****   
 937:Drivers/STM32L0xx_HAL_Driver/Src/stm32l0xx_hal_rtc_ex.c ****   return HAL_OK;
 1084              		.loc 1 937 0
 1085 0054 0020     		mov	r0, #0
 1086              	.L59:
 938:Drivers/STM32L0xx_HAL_Driver/Src/stm32l0xx_hal_rtc_ex.c **** }
 1087              		.loc 1 938 0
 1088              		@ sp needed
 1089              	.LVL79:
 1090              	.LVL80:
 1091              	.LVL81:
 1092 0056 70BD     		pop	{r4, r5, r6, pc}
 1093              	.L64:
 1094              		.align	2
 1095              	.L63:
 1096 0058 7FEFFFFF 		.word	-4225
 1097              		.cfi_endproc
 1098              	.LFE47:
 1100              		.section	.text.HAL_RTCEx_PollForTamper1Event,"ax",%progbits
 1101              		.align	2
 1102              		.global	HAL_RTCEx_PollForTamper1Event
 1103              		.code	16
 1104              		.thumb_func
 1106              	HAL_RTCEx_PollForTamper1Event:
 1107              	.LFB48:
 939:Drivers/STM32L0xx_HAL_Driver/Src/stm32l0xx_hal_rtc_ex.c **** 
 940:Drivers/STM32L0xx_HAL_Driver/Src/stm32l0xx_hal_rtc_ex.c **** #if defined (STM32L063xx) || defined (STM32L062xx) || defined (STM32L061xx) || \
 941:Drivers/STM32L0xx_HAL_Driver/Src/stm32l0xx_hal_rtc_ex.c ****     defined (STM32L053xx) || defined (STM32L052xx) || defined (STM32L051xx) ||\
 942:Drivers/STM32L0xx_HAL_Driver/Src/stm32l0xx_hal_rtc_ex.c ****     defined (STM32L083xx) || defined (STM32L082xx) || defined (STM32L081xx) || \
 943:Drivers/STM32L0xx_HAL_Driver/Src/stm32l0xx_hal_rtc_ex.c ****     defined (STM32L073xx) || defined (STM32L072xx) || defined (STM32L071xx) || \
ARM GAS  /tmp/ccZ63Pwo.s 			page 37


 944:Drivers/STM32L0xx_HAL_Driver/Src/stm32l0xx_hal_rtc_ex.c ****     defined (STM32L031xx) || defined (STM32L041xx)
 945:Drivers/STM32L0xx_HAL_Driver/Src/stm32l0xx_hal_rtc_ex.c **** /**
 946:Drivers/STM32L0xx_HAL_Driver/Src/stm32l0xx_hal_rtc_ex.c ****   * @brief  Handle Tamper 1 Polling.
 947:Drivers/STM32L0xx_HAL_Driver/Src/stm32l0xx_hal_rtc_ex.c ****   * @param  hrtc: RTC handle
 948:Drivers/STM32L0xx_HAL_Driver/Src/stm32l0xx_hal_rtc_ex.c ****   * @param  Timeout: Timeout duration
 949:Drivers/STM32L0xx_HAL_Driver/Src/stm32l0xx_hal_rtc_ex.c ****   * @retval HAL status
 950:Drivers/STM32L0xx_HAL_Driver/Src/stm32l0xx_hal_rtc_ex.c ****   */
 951:Drivers/STM32L0xx_HAL_Driver/Src/stm32l0xx_hal_rtc_ex.c **** HAL_StatusTypeDef HAL_RTCEx_PollForTamper1Event(RTC_HandleTypeDef *hrtc, uint32_t Timeout)
 952:Drivers/STM32L0xx_HAL_Driver/Src/stm32l0xx_hal_rtc_ex.c **** {
 1108              		.loc 1 952 0
 1109              		.cfi_startproc
 1110              	.LVL82:
 1111 0000 70B5     		push	{r4, r5, r6, lr}
 1112              	.LCFI9:
 1113              		.cfi_def_cfa_offset 16
 1114              		.cfi_offset 4, -16
 1115              		.cfi_offset 5, -12
 1116              		.cfi_offset 6, -8
 1117              		.cfi_offset 14, -4
 1118 0002 041C     		mov	r4, r0
 1119 0004 0D1C     		mov	r5, r1
 953:Drivers/STM32L0xx_HAL_Driver/Src/stm32l0xx_hal_rtc_ex.c ****   uint32_t tickstart = HAL_GetTick();
 1120              		.loc 1 953 0
 1121 0006 FFF7FEFF 		bl	HAL_GetTick
 1122              	.LVL83:
 1123 000a 061C     		mov	r6, r0
 1124              	.LVL84:
 954:Drivers/STM32L0xx_HAL_Driver/Src/stm32l0xx_hal_rtc_ex.c **** 
 955:Drivers/STM32L0xx_HAL_Driver/Src/stm32l0xx_hal_rtc_ex.c ****   /* Get the status of the Interrupt */
 956:Drivers/STM32L0xx_HAL_Driver/Src/stm32l0xx_hal_rtc_ex.c ****   while(__HAL_RTC_TAMPER_GET_FLAG(hrtc, RTC_FLAG_TAMP1F)== RESET)
 1125              		.loc 1 956 0
 1126 000c 0DE0     		b	.L67
 1127              	.LVL85:
 1128              	.L70:
 957:Drivers/STM32L0xx_HAL_Driver/Src/stm32l0xx_hal_rtc_ex.c ****   {
 958:Drivers/STM32L0xx_HAL_Driver/Src/stm32l0xx_hal_rtc_ex.c ****     if(Timeout != HAL_MAX_DELAY)
 1129              		.loc 1 958 0
 1130 000e 6B1C     		add	r3, r5, #1
 1131 0010 0BD0     		beq	.L67
 959:Drivers/STM32L0xx_HAL_Driver/Src/stm32l0xx_hal_rtc_ex.c ****     {
 960:Drivers/STM32L0xx_HAL_Driver/Src/stm32l0xx_hal_rtc_ex.c ****       if((Timeout == 0U)||((HAL_GetTick() - tickstart ) > Timeout))
 1132              		.loc 1 960 0
 1133 0012 002D     		cmp	r5, #0
 1134 0014 04D0     		beq	.L68
 1135              		.loc 1 960 0 is_stmt 0 discriminator 1
 1136 0016 FFF7FEFF 		bl	HAL_GetTick
 1137              	.LVL86:
 1138 001a 801B     		sub	r0, r0, r6
 1139 001c A842     		cmp	r0, r5
 1140 001e 04D9     		bls	.L67
 1141              	.L68:
 961:Drivers/STM32L0xx_HAL_Driver/Src/stm32l0xx_hal_rtc_ex.c ****       {
 962:Drivers/STM32L0xx_HAL_Driver/Src/stm32l0xx_hal_rtc_ex.c ****         hrtc->State = HAL_RTC_STATE_TIMEOUT;
 1142              		.loc 1 962 0 is_stmt 1
 1143 0020 0322     		mov	r2, #3
 1144 0022 2123     		mov	r3, #33
 1145 0024 E254     		strb	r2, [r4, r3]
ARM GAS  /tmp/ccZ63Pwo.s 			page 38


 963:Drivers/STM32L0xx_HAL_Driver/Src/stm32l0xx_hal_rtc_ex.c ****         return HAL_TIMEOUT;
 1146              		.loc 1 963 0
 1147 0026 0320     		mov	r0, #3
 1148 0028 0DE0     		b	.L69
 1149              	.L67:
 956:Drivers/STM32L0xx_HAL_Driver/Src/stm32l0xx_hal_rtc_ex.c ****   {
 1150              		.loc 1 956 0
 1151 002a 2368     		ldr	r3, [r4]
 1152 002c DA68     		ldr	r2, [r3, #12]
 1153 002e 9204     		lsl	r2, r2, #18
 1154 0030 EDD5     		bpl	.L70
 964:Drivers/STM32L0xx_HAL_Driver/Src/stm32l0xx_hal_rtc_ex.c ****       }
 965:Drivers/STM32L0xx_HAL_Driver/Src/stm32l0xx_hal_rtc_ex.c ****     }
 966:Drivers/STM32L0xx_HAL_Driver/Src/stm32l0xx_hal_rtc_ex.c ****   }
 967:Drivers/STM32L0xx_HAL_Driver/Src/stm32l0xx_hal_rtc_ex.c **** 
 968:Drivers/STM32L0xx_HAL_Driver/Src/stm32l0xx_hal_rtc_ex.c ****   /* Clear the Tamper Flag */
 969:Drivers/STM32L0xx_HAL_Driver/Src/stm32l0xx_hal_rtc_ex.c ****   __HAL_RTC_TAMPER_CLEAR_FLAG(hrtc,RTC_FLAG_TAMP1F);
 1155              		.loc 1 969 0
 1156 0032 DA68     		ldr	r2, [r3, #12]
 1157 0034 FF21     		mov	r1, #255
 1158 0036 0A40     		and	r2, r1
 1159 0038 0349     		ldr	r1, .L71
 1160 003a 0A43     		orr	r2, r1
 1161 003c DA60     		str	r2, [r3, #12]
 970:Drivers/STM32L0xx_HAL_Driver/Src/stm32l0xx_hal_rtc_ex.c ****   
 971:Drivers/STM32L0xx_HAL_Driver/Src/stm32l0xx_hal_rtc_ex.c ****   /* Change RTC state */
 972:Drivers/STM32L0xx_HAL_Driver/Src/stm32l0xx_hal_rtc_ex.c ****   hrtc->State = HAL_RTC_STATE_READY;
 1162              		.loc 1 972 0
 1163 003e 0122     		mov	r2, #1
 1164 0040 2123     		mov	r3, #33
 1165 0042 E254     		strb	r2, [r4, r3]
 973:Drivers/STM32L0xx_HAL_Driver/Src/stm32l0xx_hal_rtc_ex.c ****   
 974:Drivers/STM32L0xx_HAL_Driver/Src/stm32l0xx_hal_rtc_ex.c ****   return HAL_OK; 
 1166              		.loc 1 974 0
 1167 0044 0020     		mov	r0, #0
 1168              	.L69:
 975:Drivers/STM32L0xx_HAL_Driver/Src/stm32l0xx_hal_rtc_ex.c **** }
 1169              		.loc 1 975 0
 1170              		@ sp needed
 1171              	.LVL87:
 1172              	.LVL88:
 1173              	.LVL89:
 1174 0046 70BD     		pop	{r4, r5, r6, pc}
 1175              	.L72:
 1176              		.align	2
 1177              	.L71:
 1178 0048 7FDFFFFF 		.word	-8321
 1179              		.cfi_endproc
 1180              	.LFE48:
 1182              		.section	.text.HAL_RTCEx_PollForTamper2Event,"ax",%progbits
 1183              		.align	2
 1184              		.global	HAL_RTCEx_PollForTamper2Event
 1185              		.code	16
 1186              		.thumb_func
 1188              	HAL_RTCEx_PollForTamper2Event:
 1189              	.LFB49:
 976:Drivers/STM32L0xx_HAL_Driver/Src/stm32l0xx_hal_rtc_ex.c **** #endif /* (STM32L063xx) || (STM32L062xx) || (STM32L061xx) ||
ARM GAS  /tmp/ccZ63Pwo.s 			page 39


 977:Drivers/STM32L0xx_HAL_Driver/Src/stm32l0xx_hal_rtc_ex.c ****         * (STM32L053xx) || (STM32L052xx) || (STM32L051xx) ||
 978:Drivers/STM32L0xx_HAL_Driver/Src/stm32l0xx_hal_rtc_ex.c ****         * (STM32L083xx) || (STM32L082xx) || (STM32L081xx) ||
 979:Drivers/STM32L0xx_HAL_Driver/Src/stm32l0xx_hal_rtc_ex.c ****         * (STM32L073xx) || (STM32L072xx) || (STM32L071xx) || 
 980:Drivers/STM32L0xx_HAL_Driver/Src/stm32l0xx_hal_rtc_ex.c ****         * (STM32L031xx) || (STM32L041xx)
 981:Drivers/STM32L0xx_HAL_Driver/Src/stm32l0xx_hal_rtc_ex.c ****         */
 982:Drivers/STM32L0xx_HAL_Driver/Src/stm32l0xx_hal_rtc_ex.c **** 
 983:Drivers/STM32L0xx_HAL_Driver/Src/stm32l0xx_hal_rtc_ex.c **** /**
 984:Drivers/STM32L0xx_HAL_Driver/Src/stm32l0xx_hal_rtc_ex.c ****   * @brief  Handle Tamper 2 Polling.
 985:Drivers/STM32L0xx_HAL_Driver/Src/stm32l0xx_hal_rtc_ex.c ****   * @param  hrtc: RTC handle
 986:Drivers/STM32L0xx_HAL_Driver/Src/stm32l0xx_hal_rtc_ex.c ****   * @param  Timeout: Timeout duration
 987:Drivers/STM32L0xx_HAL_Driver/Src/stm32l0xx_hal_rtc_ex.c ****   * @retval HAL status
 988:Drivers/STM32L0xx_HAL_Driver/Src/stm32l0xx_hal_rtc_ex.c ****   */
 989:Drivers/STM32L0xx_HAL_Driver/Src/stm32l0xx_hal_rtc_ex.c **** HAL_StatusTypeDef HAL_RTCEx_PollForTamper2Event(RTC_HandleTypeDef *hrtc, uint32_t Timeout)
 990:Drivers/STM32L0xx_HAL_Driver/Src/stm32l0xx_hal_rtc_ex.c **** {
 1190              		.loc 1 990 0
 1191              		.cfi_startproc
 1192              	.LVL90:
 1193 0000 70B5     		push	{r4, r5, r6, lr}
 1194              	.LCFI10:
 1195              		.cfi_def_cfa_offset 16
 1196              		.cfi_offset 4, -16
 1197              		.cfi_offset 5, -12
 1198              		.cfi_offset 6, -8
 1199              		.cfi_offset 14, -4
 1200 0002 041C     		mov	r4, r0
 1201 0004 0D1C     		mov	r5, r1
 991:Drivers/STM32L0xx_HAL_Driver/Src/stm32l0xx_hal_rtc_ex.c ****   uint32_t tickstart = HAL_GetTick();
 1202              		.loc 1 991 0
 1203 0006 FFF7FEFF 		bl	HAL_GetTick
 1204              	.LVL91:
 1205 000a 061C     		mov	r6, r0
 1206              	.LVL92:
 992:Drivers/STM32L0xx_HAL_Driver/Src/stm32l0xx_hal_rtc_ex.c **** 
 993:Drivers/STM32L0xx_HAL_Driver/Src/stm32l0xx_hal_rtc_ex.c ****   /* Get the status of the Interrupt */
 994:Drivers/STM32L0xx_HAL_Driver/Src/stm32l0xx_hal_rtc_ex.c ****   while(__HAL_RTC_TAMPER_GET_FLAG(hrtc, RTC_FLAG_TAMP2F) == RESET)
 1207              		.loc 1 994 0
 1208 000c 0DE0     		b	.L75
 1209              	.LVL93:
 1210              	.L78:
 995:Drivers/STM32L0xx_HAL_Driver/Src/stm32l0xx_hal_rtc_ex.c ****   {
 996:Drivers/STM32L0xx_HAL_Driver/Src/stm32l0xx_hal_rtc_ex.c ****     if(Timeout != HAL_MAX_DELAY)
 1211              		.loc 1 996 0
 1212 000e 6B1C     		add	r3, r5, #1
 1213 0010 0BD0     		beq	.L75
 997:Drivers/STM32L0xx_HAL_Driver/Src/stm32l0xx_hal_rtc_ex.c ****     {
 998:Drivers/STM32L0xx_HAL_Driver/Src/stm32l0xx_hal_rtc_ex.c ****       if((Timeout == 0U)||((HAL_GetTick() - tickstart ) > Timeout))
 1214              		.loc 1 998 0
 1215 0012 002D     		cmp	r5, #0
 1216 0014 04D0     		beq	.L76
 1217              		.loc 1 998 0 is_stmt 0 discriminator 1
 1218 0016 FFF7FEFF 		bl	HAL_GetTick
 1219              	.LVL94:
 1220 001a 801B     		sub	r0, r0, r6
 1221 001c A842     		cmp	r0, r5
 1222 001e 04D9     		bls	.L75
 1223              	.L76:
 999:Drivers/STM32L0xx_HAL_Driver/Src/stm32l0xx_hal_rtc_ex.c ****       {
ARM GAS  /tmp/ccZ63Pwo.s 			page 40


1000:Drivers/STM32L0xx_HAL_Driver/Src/stm32l0xx_hal_rtc_ex.c ****         hrtc->State = HAL_RTC_STATE_TIMEOUT;
 1224              		.loc 1 1000 0 is_stmt 1
 1225 0020 0322     		mov	r2, #3
 1226 0022 2123     		mov	r3, #33
 1227 0024 E254     		strb	r2, [r4, r3]
1001:Drivers/STM32L0xx_HAL_Driver/Src/stm32l0xx_hal_rtc_ex.c ****         return HAL_TIMEOUT;
 1228              		.loc 1 1001 0
 1229 0026 0320     		mov	r0, #3
 1230 0028 0DE0     		b	.L77
 1231              	.L75:
 994:Drivers/STM32L0xx_HAL_Driver/Src/stm32l0xx_hal_rtc_ex.c ****   {
 1232              		.loc 1 994 0
 1233 002a 2368     		ldr	r3, [r4]
 1234 002c DA68     		ldr	r2, [r3, #12]
 1235 002e 5204     		lsl	r2, r2, #17
 1236 0030 EDD5     		bpl	.L78
1002:Drivers/STM32L0xx_HAL_Driver/Src/stm32l0xx_hal_rtc_ex.c ****       }
1003:Drivers/STM32L0xx_HAL_Driver/Src/stm32l0xx_hal_rtc_ex.c ****     }
1004:Drivers/STM32L0xx_HAL_Driver/Src/stm32l0xx_hal_rtc_ex.c ****   }
1005:Drivers/STM32L0xx_HAL_Driver/Src/stm32l0xx_hal_rtc_ex.c **** 
1006:Drivers/STM32L0xx_HAL_Driver/Src/stm32l0xx_hal_rtc_ex.c ****   /* Clear the Tamper Flag */
1007:Drivers/STM32L0xx_HAL_Driver/Src/stm32l0xx_hal_rtc_ex.c ****   __HAL_RTC_TAMPER_CLEAR_FLAG(hrtc,RTC_FLAG_TAMP2F);
 1237              		.loc 1 1007 0
 1238 0032 DA68     		ldr	r2, [r3, #12]
 1239 0034 FF21     		mov	r1, #255
 1240 0036 0A40     		and	r2, r1
 1241 0038 0349     		ldr	r1, .L79
 1242 003a 0A43     		orr	r2, r1
 1243 003c DA60     		str	r2, [r3, #12]
1008:Drivers/STM32L0xx_HAL_Driver/Src/stm32l0xx_hal_rtc_ex.c **** 
1009:Drivers/STM32L0xx_HAL_Driver/Src/stm32l0xx_hal_rtc_ex.c ****   /* Change RTC state */
1010:Drivers/STM32L0xx_HAL_Driver/Src/stm32l0xx_hal_rtc_ex.c ****   hrtc->State = HAL_RTC_STATE_READY;
 1244              		.loc 1 1010 0
 1245 003e 0122     		mov	r2, #1
 1246 0040 2123     		mov	r3, #33
 1247 0042 E254     		strb	r2, [r4, r3]
1011:Drivers/STM32L0xx_HAL_Driver/Src/stm32l0xx_hal_rtc_ex.c **** 
1012:Drivers/STM32L0xx_HAL_Driver/Src/stm32l0xx_hal_rtc_ex.c ****   return HAL_OK;
 1248              		.loc 1 1012 0
 1249 0044 0020     		mov	r0, #0
 1250              	.L77:
1013:Drivers/STM32L0xx_HAL_Driver/Src/stm32l0xx_hal_rtc_ex.c **** }
 1251              		.loc 1 1013 0
 1252              		@ sp needed
 1253              	.LVL95:
 1254              	.LVL96:
 1255              	.LVL97:
 1256 0046 70BD     		pop	{r4, r5, r6, pc}
 1257              	.L80:
 1258              		.align	2
 1259              	.L79:
 1260 0048 7FBFFFFF 		.word	-16513
 1261              		.cfi_endproc
 1262              	.LFE49:
 1264              		.section	.text.HAL_RTCEx_SetWakeUpTimer,"ax",%progbits
 1265              		.align	2
 1266              		.global	HAL_RTCEx_SetWakeUpTimer
ARM GAS  /tmp/ccZ63Pwo.s 			page 41


 1267              		.code	16
 1268              		.thumb_func
 1270              	HAL_RTCEx_SetWakeUpTimer:
 1271              	.LFB50:
1014:Drivers/STM32L0xx_HAL_Driver/Src/stm32l0xx_hal_rtc_ex.c **** 
1015:Drivers/STM32L0xx_HAL_Driver/Src/stm32l0xx_hal_rtc_ex.c **** 
1016:Drivers/STM32L0xx_HAL_Driver/Src/stm32l0xx_hal_rtc_ex.c **** #if defined (STM32L083xx) || defined (STM32L082xx) || defined (STM32L081xx) || \
1017:Drivers/STM32L0xx_HAL_Driver/Src/stm32l0xx_hal_rtc_ex.c ****     defined (STM32L073xx) || defined (STM32L072xx) || defined (STM32L071xx) || \
1018:Drivers/STM32L0xx_HAL_Driver/Src/stm32l0xx_hal_rtc_ex.c ****     defined (STM32L031xx) || defined (STM32L041xx) || defined (STM32L011xx) || defined (STM32L021xx
1019:Drivers/STM32L0xx_HAL_Driver/Src/stm32l0xx_hal_rtc_ex.c ****     
1020:Drivers/STM32L0xx_HAL_Driver/Src/stm32l0xx_hal_rtc_ex.c **** /**
1021:Drivers/STM32L0xx_HAL_Driver/Src/stm32l0xx_hal_rtc_ex.c ****   * @brief  Handle Tamper 3 Polling.
1022:Drivers/STM32L0xx_HAL_Driver/Src/stm32l0xx_hal_rtc_ex.c ****   * @param  hrtc: RTC handle
1023:Drivers/STM32L0xx_HAL_Driver/Src/stm32l0xx_hal_rtc_ex.c ****   * @param  Timeout: Timeout duration
1024:Drivers/STM32L0xx_HAL_Driver/Src/stm32l0xx_hal_rtc_ex.c ****   * @retval HAL status
1025:Drivers/STM32L0xx_HAL_Driver/Src/stm32l0xx_hal_rtc_ex.c ****   */
1026:Drivers/STM32L0xx_HAL_Driver/Src/stm32l0xx_hal_rtc_ex.c **** HAL_StatusTypeDef HAL_RTCEx_PollForTamper3Event(RTC_HandleTypeDef *hrtc, uint32_t Timeout)
1027:Drivers/STM32L0xx_HAL_Driver/Src/stm32l0xx_hal_rtc_ex.c **** {  
1028:Drivers/STM32L0xx_HAL_Driver/Src/stm32l0xx_hal_rtc_ex.c ****   uint32_t tickstart = HAL_GetTick();
1029:Drivers/STM32L0xx_HAL_Driver/Src/stm32l0xx_hal_rtc_ex.c **** 
1030:Drivers/STM32L0xx_HAL_Driver/Src/stm32l0xx_hal_rtc_ex.c ****   /* Get the status of the Interrupt */
1031:Drivers/STM32L0xx_HAL_Driver/Src/stm32l0xx_hal_rtc_ex.c ****   while(__HAL_RTC_TAMPER_GET_FLAG(hrtc,RTC_FLAG_TAMP3F) == RESET)
1032:Drivers/STM32L0xx_HAL_Driver/Src/stm32l0xx_hal_rtc_ex.c ****   {
1033:Drivers/STM32L0xx_HAL_Driver/Src/stm32l0xx_hal_rtc_ex.c ****     if(Timeout != HAL_MAX_DELAY)
1034:Drivers/STM32L0xx_HAL_Driver/Src/stm32l0xx_hal_rtc_ex.c ****     {
1035:Drivers/STM32L0xx_HAL_Driver/Src/stm32l0xx_hal_rtc_ex.c ****       if((Timeout == 0U) || ((HAL_GetTick()-tickstart) > Timeout))
1036:Drivers/STM32L0xx_HAL_Driver/Src/stm32l0xx_hal_rtc_ex.c ****       {
1037:Drivers/STM32L0xx_HAL_Driver/Src/stm32l0xx_hal_rtc_ex.c ****         hrtc->State = HAL_RTC_STATE_TIMEOUT;
1038:Drivers/STM32L0xx_HAL_Driver/Src/stm32l0xx_hal_rtc_ex.c ****         return HAL_TIMEOUT;
1039:Drivers/STM32L0xx_HAL_Driver/Src/stm32l0xx_hal_rtc_ex.c ****       }
1040:Drivers/STM32L0xx_HAL_Driver/Src/stm32l0xx_hal_rtc_ex.c ****     }
1041:Drivers/STM32L0xx_HAL_Driver/Src/stm32l0xx_hal_rtc_ex.c ****   }
1042:Drivers/STM32L0xx_HAL_Driver/Src/stm32l0xx_hal_rtc_ex.c **** 
1043:Drivers/STM32L0xx_HAL_Driver/Src/stm32l0xx_hal_rtc_ex.c ****   /* Clear the Tamper Flag */
1044:Drivers/STM32L0xx_HAL_Driver/Src/stm32l0xx_hal_rtc_ex.c ****   __HAL_RTC_TAMPER_CLEAR_FLAG(hrtc,RTC_FLAG_TAMP3F);
1045:Drivers/STM32L0xx_HAL_Driver/Src/stm32l0xx_hal_rtc_ex.c **** 
1046:Drivers/STM32L0xx_HAL_Driver/Src/stm32l0xx_hal_rtc_ex.c ****   /* Change RTC state */
1047:Drivers/STM32L0xx_HAL_Driver/Src/stm32l0xx_hal_rtc_ex.c ****   hrtc->State = HAL_RTC_STATE_READY;
1048:Drivers/STM32L0xx_HAL_Driver/Src/stm32l0xx_hal_rtc_ex.c **** 
1049:Drivers/STM32L0xx_HAL_Driver/Src/stm32l0xx_hal_rtc_ex.c ****   return HAL_OK;
1050:Drivers/STM32L0xx_HAL_Driver/Src/stm32l0xx_hal_rtc_ex.c **** }
1051:Drivers/STM32L0xx_HAL_Driver/Src/stm32l0xx_hal_rtc_ex.c **** #endif /* (STM32L083xx) || (STM32L082xx) || (STM32L081xx) ||
1052:Drivers/STM32L0xx_HAL_Driver/Src/stm32l0xx_hal_rtc_ex.c ****     * (STM32L073xx) || (STM32L072xx) || (STM32L071xx) || (STM32L031xx) || (STM32L041xx) || (STM32L0
1053:Drivers/STM32L0xx_HAL_Driver/Src/stm32l0xx_hal_rtc_ex.c ****     */
1054:Drivers/STM32L0xx_HAL_Driver/Src/stm32l0xx_hal_rtc_ex.c **** 
1055:Drivers/STM32L0xx_HAL_Driver/Src/stm32l0xx_hal_rtc_ex.c **** /**
1056:Drivers/STM32L0xx_HAL_Driver/Src/stm32l0xx_hal_rtc_ex.c ****   * @}
1057:Drivers/STM32L0xx_HAL_Driver/Src/stm32l0xx_hal_rtc_ex.c ****   */
1058:Drivers/STM32L0xx_HAL_Driver/Src/stm32l0xx_hal_rtc_ex.c ****   
1059:Drivers/STM32L0xx_HAL_Driver/Src/stm32l0xx_hal_rtc_ex.c **** /** @addtogroup RTCEx_Exported_Functions_Group2
1060:Drivers/STM32L0xx_HAL_Driver/Src/stm32l0xx_hal_rtc_ex.c ****   * @brief    RTC Wake-up functions
1061:Drivers/STM32L0xx_HAL_Driver/Src/stm32l0xx_hal_rtc_ex.c ****   *
1062:Drivers/STM32L0xx_HAL_Driver/Src/stm32l0xx_hal_rtc_ex.c **** @verbatim   
1063:Drivers/STM32L0xx_HAL_Driver/Src/stm32l0xx_hal_rtc_ex.c ****  ===============================================================================
1064:Drivers/STM32L0xx_HAL_Driver/Src/stm32l0xx_hal_rtc_ex.c ****                         ##### RTC Wake-up functions #####
1065:Drivers/STM32L0xx_HAL_Driver/Src/stm32l0xx_hal_rtc_ex.c ****  ===============================================================================  
1066:Drivers/STM32L0xx_HAL_Driver/Src/stm32l0xx_hal_rtc_ex.c ****  
ARM GAS  /tmp/ccZ63Pwo.s 			page 42


1067:Drivers/STM32L0xx_HAL_Driver/Src/stm32l0xx_hal_rtc_ex.c ****  [..] This section provides functions allowing to configure Wake-up feature
1068:Drivers/STM32L0xx_HAL_Driver/Src/stm32l0xx_hal_rtc_ex.c **** 
1069:Drivers/STM32L0xx_HAL_Driver/Src/stm32l0xx_hal_rtc_ex.c **** @endverbatim
1070:Drivers/STM32L0xx_HAL_Driver/Src/stm32l0xx_hal_rtc_ex.c ****   * @{
1071:Drivers/STM32L0xx_HAL_Driver/Src/stm32l0xx_hal_rtc_ex.c ****   */
1072:Drivers/STM32L0xx_HAL_Driver/Src/stm32l0xx_hal_rtc_ex.c **** 
1073:Drivers/STM32L0xx_HAL_Driver/Src/stm32l0xx_hal_rtc_ex.c **** /**
1074:Drivers/STM32L0xx_HAL_Driver/Src/stm32l0xx_hal_rtc_ex.c ****   * @brief  Set wake up timer.
1075:Drivers/STM32L0xx_HAL_Driver/Src/stm32l0xx_hal_rtc_ex.c ****   * @param  hrtc: RTC handle
1076:Drivers/STM32L0xx_HAL_Driver/Src/stm32l0xx_hal_rtc_ex.c ****   * @param  WakeUpCounter: Wake up counter
1077:Drivers/STM32L0xx_HAL_Driver/Src/stm32l0xx_hal_rtc_ex.c ****   * @param  WakeUpClock: Wake up clock
1078:Drivers/STM32L0xx_HAL_Driver/Src/stm32l0xx_hal_rtc_ex.c ****   * @retval HAL status
1079:Drivers/STM32L0xx_HAL_Driver/Src/stm32l0xx_hal_rtc_ex.c ****   */
1080:Drivers/STM32L0xx_HAL_Driver/Src/stm32l0xx_hal_rtc_ex.c **** HAL_StatusTypeDef HAL_RTCEx_SetWakeUpTimer(RTC_HandleTypeDef *hrtc, uint32_t WakeUpCounter, uint32_
1081:Drivers/STM32L0xx_HAL_Driver/Src/stm32l0xx_hal_rtc_ex.c **** {
 1272              		.loc 1 1081 0
 1273              		.cfi_startproc
 1274              	.LVL98:
 1275 0000 F8B5     		push	{r3, r4, r5, r6, r7, lr}
 1276              	.LCFI11:
 1277              		.cfi_def_cfa_offset 24
 1278              		.cfi_offset 3, -24
 1279              		.cfi_offset 4, -20
 1280              		.cfi_offset 5, -16
 1281              		.cfi_offset 6, -12
 1282              		.cfi_offset 7, -8
 1283              		.cfi_offset 14, -4
 1284              	.LVL99:
1082:Drivers/STM32L0xx_HAL_Driver/Src/stm32l0xx_hal_rtc_ex.c ****   uint32_t tickstart = 0U;
1083:Drivers/STM32L0xx_HAL_Driver/Src/stm32l0xx_hal_rtc_ex.c **** 
1084:Drivers/STM32L0xx_HAL_Driver/Src/stm32l0xx_hal_rtc_ex.c ****   /* Check the parameters */
1085:Drivers/STM32L0xx_HAL_Driver/Src/stm32l0xx_hal_rtc_ex.c ****   assert_param(IS_RTC_WAKEUP_CLOCK(WakeUpClock));
1086:Drivers/STM32L0xx_HAL_Driver/Src/stm32l0xx_hal_rtc_ex.c ****   assert_param(IS_RTC_WAKEUP_COUNTER(WakeUpCounter));
1087:Drivers/STM32L0xx_HAL_Driver/Src/stm32l0xx_hal_rtc_ex.c **** 
1088:Drivers/STM32L0xx_HAL_Driver/Src/stm32l0xx_hal_rtc_ex.c ****   /* Process Locked */ 
1089:Drivers/STM32L0xx_HAL_Driver/Src/stm32l0xx_hal_rtc_ex.c ****   __HAL_LOCK(hrtc);
 1285              		.loc 1 1089 0
 1286 0002 2023     		mov	r3, #32
 1287 0004 C35C     		ldrb	r3, [r0, r3]
 1288 0006 012B     		cmp	r3, #1
 1289 0008 66D0     		beq	.L88
 1290 000a 141C     		mov	r4, r2
 1291 000c 0D1C     		mov	r5, r1
 1292 000e 061C     		mov	r6, r0
 1293              		.loc 1 1089 0 is_stmt 0 discriminator 2
 1294 0010 0122     		mov	r2, #1
 1295              	.LVL100:
 1296 0012 2023     		mov	r3, #32
 1297 0014 C254     		strb	r2, [r0, r3]
1090:Drivers/STM32L0xx_HAL_Driver/Src/stm32l0xx_hal_rtc_ex.c **** 
1091:Drivers/STM32L0xx_HAL_Driver/Src/stm32l0xx_hal_rtc_ex.c ****   hrtc->State = HAL_RTC_STATE_BUSY;
 1298              		.loc 1 1091 0 is_stmt 1 discriminator 2
 1299 0016 0132     		add	r2, r2, #1
 1300 0018 0133     		add	r3, r3, #1
 1301 001a C254     		strb	r2, [r0, r3]
1092:Drivers/STM32L0xx_HAL_Driver/Src/stm32l0xx_hal_rtc_ex.c **** 
1093:Drivers/STM32L0xx_HAL_Driver/Src/stm32l0xx_hal_rtc_ex.c ****   /* Disable the write protection for RTC registers */
ARM GAS  /tmp/ccZ63Pwo.s 			page 43


1094:Drivers/STM32L0xx_HAL_Driver/Src/stm32l0xx_hal_rtc_ex.c ****   __HAL_RTC_WRITEPROTECTION_DISABLE(hrtc);
 1302              		.loc 1 1094 0 discriminator 2
 1303 001c 0368     		ldr	r3, [r0]
 1304 001e C832     		add	r2, r2, #200
 1305 0020 5A62     		str	r2, [r3, #36]
 1306 0022 0368     		ldr	r3, [r0]
 1307 0024 773A     		sub	r2, r2, #119
 1308 0026 5A62     		str	r2, [r3, #36]
1095:Drivers/STM32L0xx_HAL_Driver/Src/stm32l0xx_hal_rtc_ex.c ****  
1096:Drivers/STM32L0xx_HAL_Driver/Src/stm32l0xx_hal_rtc_ex.c ****   /*Check RTC WUTWF flag is reset only when wake up timer enabled*/
1097:Drivers/STM32L0xx_HAL_Driver/Src/stm32l0xx_hal_rtc_ex.c ****   if((hrtc->Instance->CR & RTC_CR_WUTE) != RESET){
 1309              		.loc 1 1097 0 discriminator 2
 1310 0028 0368     		ldr	r3, [r0]
 1311 002a 9B68     		ldr	r3, [r3, #8]
 1312 002c 5B05     		lsl	r3, r3, #21
 1313 002e 19D5     		bpl	.L83
1098:Drivers/STM32L0xx_HAL_Driver/Src/stm32l0xx_hal_rtc_ex.c ****     tickstart = HAL_GetTick();
 1314              		.loc 1 1098 0
 1315 0030 FFF7FEFF 		bl	HAL_GetTick
 1316              	.LVL101:
 1317 0034 071C     		mov	r7, r0
 1318              	.LVL102:
1099:Drivers/STM32L0xx_HAL_Driver/Src/stm32l0xx_hal_rtc_ex.c **** 
1100:Drivers/STM32L0xx_HAL_Driver/Src/stm32l0xx_hal_rtc_ex.c ****    /* Wait till RTC WUTWF flag is reset and if Time out is reached exit */
1101:Drivers/STM32L0xx_HAL_Driver/Src/stm32l0xx_hal_rtc_ex.c ****    while(__HAL_RTC_WAKEUPTIMER_GET_FLAG(hrtc, RTC_FLAG_WUTWF) == SET)
 1319              		.loc 1 1101 0
 1320 0036 11E0     		b	.L84
 1321              	.LVL103:
 1322              	.L85:
1102:Drivers/STM32L0xx_HAL_Driver/Src/stm32l0xx_hal_rtc_ex.c ****    {
1103:Drivers/STM32L0xx_HAL_Driver/Src/stm32l0xx_hal_rtc_ex.c ****     if((HAL_GetTick() - tickstart ) > RTC_TIMEOUT_VALUE)
 1323              		.loc 1 1103 0
 1324 0038 FFF7FEFF 		bl	HAL_GetTick
 1325              	.LVL104:
 1326 003c C01B     		sub	r0, r0, r7
 1327 003e FA23     		mov	r3, #250
 1328 0040 9B00     		lsl	r3, r3, #2
 1329 0042 9842     		cmp	r0, r3
 1330 0044 0AD9     		bls	.L84
1104:Drivers/STM32L0xx_HAL_Driver/Src/stm32l0xx_hal_rtc_ex.c ****       {
1105:Drivers/STM32L0xx_HAL_Driver/Src/stm32l0xx_hal_rtc_ex.c ****        /* Enable the write protection for RTC registers */
1106:Drivers/STM32L0xx_HAL_Driver/Src/stm32l0xx_hal_rtc_ex.c ****        __HAL_RTC_WRITEPROTECTION_ENABLE(hrtc);
 1331              		.loc 1 1106 0
 1332 0046 3368     		ldr	r3, [r6]
 1333 0048 FF22     		mov	r2, #255
 1334 004a 5A62     		str	r2, [r3, #36]
1107:Drivers/STM32L0xx_HAL_Driver/Src/stm32l0xx_hal_rtc_ex.c **** 
1108:Drivers/STM32L0xx_HAL_Driver/Src/stm32l0xx_hal_rtc_ex.c ****        hrtc->State = HAL_RTC_STATE_TIMEOUT;
 1335              		.loc 1 1108 0
 1336 004c FC3A     		sub	r2, r2, #252
 1337 004e 2123     		mov	r3, #33
 1338 0050 F254     		strb	r2, [r6, r3]
1109:Drivers/STM32L0xx_HAL_Driver/Src/stm32l0xx_hal_rtc_ex.c **** 
1110:Drivers/STM32L0xx_HAL_Driver/Src/stm32l0xx_hal_rtc_ex.c ****        /* Process Unlocked */ 
1111:Drivers/STM32L0xx_HAL_Driver/Src/stm32l0xx_hal_rtc_ex.c ****        __HAL_UNLOCK(hrtc);
 1339              		.loc 1 1111 0
 1340 0052 0022     		mov	r2, #0
ARM GAS  /tmp/ccZ63Pwo.s 			page 44


 1341 0054 013B     		sub	r3, r3, #1
 1342 0056 F254     		strb	r2, [r6, r3]
1112:Drivers/STM32L0xx_HAL_Driver/Src/stm32l0xx_hal_rtc_ex.c **** 
1113:Drivers/STM32L0xx_HAL_Driver/Src/stm32l0xx_hal_rtc_ex.c ****        return HAL_TIMEOUT;
 1343              		.loc 1 1113 0
 1344 0058 0320     		mov	r0, #3
 1345 005a 3EE0     		b	.L82
 1346              	.L84:
1101:Drivers/STM32L0xx_HAL_Driver/Src/stm32l0xx_hal_rtc_ex.c ****    {
 1347              		.loc 1 1101 0
 1348 005c 3368     		ldr	r3, [r6]
 1349 005e DB68     		ldr	r3, [r3, #12]
 1350 0060 5B07     		lsl	r3, r3, #29
 1351 0062 E9D4     		bmi	.L85
 1352              	.LVL105:
 1353              	.L83:
1114:Drivers/STM32L0xx_HAL_Driver/Src/stm32l0xx_hal_rtc_ex.c ****       }
1115:Drivers/STM32L0xx_HAL_Driver/Src/stm32l0xx_hal_rtc_ex.c ****     }
1116:Drivers/STM32L0xx_HAL_Driver/Src/stm32l0xx_hal_rtc_ex.c ****   }
1117:Drivers/STM32L0xx_HAL_Driver/Src/stm32l0xx_hal_rtc_ex.c **** 
1118:Drivers/STM32L0xx_HAL_Driver/Src/stm32l0xx_hal_rtc_ex.c ****   __HAL_RTC_WAKEUPTIMER_DISABLE(hrtc);
 1354              		.loc 1 1118 0
 1355 0064 3268     		ldr	r2, [r6]
 1356 0066 9168     		ldr	r1, [r2, #8]
 1357 0068 1C4B     		ldr	r3, .L89
 1358 006a 0B40     		and	r3, r1
 1359 006c 9360     		str	r3, [r2, #8]
1119:Drivers/STM32L0xx_HAL_Driver/Src/stm32l0xx_hal_rtc_ex.c **** 
1120:Drivers/STM32L0xx_HAL_Driver/Src/stm32l0xx_hal_rtc_ex.c ****   tickstart = HAL_GetTick();
 1360              		.loc 1 1120 0
 1361 006e FFF7FEFF 		bl	HAL_GetTick
 1362              	.LVL106:
 1363 0072 071C     		mov	r7, r0
 1364              	.LVL107:
1121:Drivers/STM32L0xx_HAL_Driver/Src/stm32l0xx_hal_rtc_ex.c **** 
1122:Drivers/STM32L0xx_HAL_Driver/Src/stm32l0xx_hal_rtc_ex.c ****   /* Wait till RTC WUTWF flag is set and if Time out is reached exit */
1123:Drivers/STM32L0xx_HAL_Driver/Src/stm32l0xx_hal_rtc_ex.c ****   while(__HAL_RTC_WAKEUPTIMER_GET_FLAG(hrtc, RTC_FLAG_WUTWF) == RESET)
 1365              		.loc 1 1123 0
 1366 0074 11E0     		b	.L86
 1367              	.LVL108:
 1368              	.L87:
1124:Drivers/STM32L0xx_HAL_Driver/Src/stm32l0xx_hal_rtc_ex.c ****   {
1125:Drivers/STM32L0xx_HAL_Driver/Src/stm32l0xx_hal_rtc_ex.c ****     if((HAL_GetTick() - tickstart ) > RTC_TIMEOUT_VALUE)
 1369              		.loc 1 1125 0
 1370 0076 FFF7FEFF 		bl	HAL_GetTick
 1371              	.LVL109:
 1372 007a C01B     		sub	r0, r0, r7
 1373 007c FA23     		mov	r3, #250
 1374 007e 9B00     		lsl	r3, r3, #2
 1375 0080 9842     		cmp	r0, r3
 1376 0082 0AD9     		bls	.L86
1126:Drivers/STM32L0xx_HAL_Driver/Src/stm32l0xx_hal_rtc_ex.c ****     {
1127:Drivers/STM32L0xx_HAL_Driver/Src/stm32l0xx_hal_rtc_ex.c ****       /* Enable the write protection for RTC registers */
1128:Drivers/STM32L0xx_HAL_Driver/Src/stm32l0xx_hal_rtc_ex.c ****       __HAL_RTC_WRITEPROTECTION_ENABLE(hrtc);
 1377              		.loc 1 1128 0
 1378 0084 3368     		ldr	r3, [r6]
 1379 0086 FF22     		mov	r2, #255
ARM GAS  /tmp/ccZ63Pwo.s 			page 45


 1380 0088 5A62     		str	r2, [r3, #36]
1129:Drivers/STM32L0xx_HAL_Driver/Src/stm32l0xx_hal_rtc_ex.c **** 
1130:Drivers/STM32L0xx_HAL_Driver/Src/stm32l0xx_hal_rtc_ex.c ****       hrtc->State = HAL_RTC_STATE_TIMEOUT;
 1381              		.loc 1 1130 0
 1382 008a FC3A     		sub	r2, r2, #252
 1383 008c 2123     		mov	r3, #33
 1384 008e F254     		strb	r2, [r6, r3]
1131:Drivers/STM32L0xx_HAL_Driver/Src/stm32l0xx_hal_rtc_ex.c **** 
1132:Drivers/STM32L0xx_HAL_Driver/Src/stm32l0xx_hal_rtc_ex.c ****       /* Process Unlocked */ 
1133:Drivers/STM32L0xx_HAL_Driver/Src/stm32l0xx_hal_rtc_ex.c ****       __HAL_UNLOCK(hrtc);
 1385              		.loc 1 1133 0
 1386 0090 0022     		mov	r2, #0
 1387 0092 013B     		sub	r3, r3, #1
 1388 0094 F254     		strb	r2, [r6, r3]
1134:Drivers/STM32L0xx_HAL_Driver/Src/stm32l0xx_hal_rtc_ex.c **** 
1135:Drivers/STM32L0xx_HAL_Driver/Src/stm32l0xx_hal_rtc_ex.c ****       return HAL_TIMEOUT;
 1389              		.loc 1 1135 0
 1390 0096 0320     		mov	r0, #3
 1391 0098 1FE0     		b	.L82
 1392              	.L86:
1123:Drivers/STM32L0xx_HAL_Driver/Src/stm32l0xx_hal_rtc_ex.c ****   {
 1393              		.loc 1 1123 0
 1394 009a 3368     		ldr	r3, [r6]
 1395 009c DA68     		ldr	r2, [r3, #12]
 1396 009e 5207     		lsl	r2, r2, #29
 1397 00a0 E9D5     		bpl	.L87
1136:Drivers/STM32L0xx_HAL_Driver/Src/stm32l0xx_hal_rtc_ex.c ****     }
1137:Drivers/STM32L0xx_HAL_Driver/Src/stm32l0xx_hal_rtc_ex.c ****   }
1138:Drivers/STM32L0xx_HAL_Driver/Src/stm32l0xx_hal_rtc_ex.c **** 
1139:Drivers/STM32L0xx_HAL_Driver/Src/stm32l0xx_hal_rtc_ex.c ****   /* Clear the Wakeup Timer clock source bits in CR register */
1140:Drivers/STM32L0xx_HAL_Driver/Src/stm32l0xx_hal_rtc_ex.c ****   hrtc->Instance->CR &= (uint32_t)~RTC_CR_WUCKSEL;
 1398              		.loc 1 1140 0
 1399 00a2 9A68     		ldr	r2, [r3, #8]
 1400 00a4 0721     		mov	r1, #7
 1401 00a6 8A43     		bic	r2, r1
 1402 00a8 9A60     		str	r2, [r3, #8]
1141:Drivers/STM32L0xx_HAL_Driver/Src/stm32l0xx_hal_rtc_ex.c **** 
1142:Drivers/STM32L0xx_HAL_Driver/Src/stm32l0xx_hal_rtc_ex.c ****   /* Configure the clock source */
1143:Drivers/STM32L0xx_HAL_Driver/Src/stm32l0xx_hal_rtc_ex.c ****   hrtc->Instance->CR |= (uint32_t)WakeUpClock;
 1403              		.loc 1 1143 0
 1404 00aa 3368     		ldr	r3, [r6]
 1405 00ac 9A68     		ldr	r2, [r3, #8]
 1406 00ae 1443     		orr	r4, r2
 1407              	.LVL110:
 1408 00b0 9C60     		str	r4, [r3, #8]
1144:Drivers/STM32L0xx_HAL_Driver/Src/stm32l0xx_hal_rtc_ex.c **** 
1145:Drivers/STM32L0xx_HAL_Driver/Src/stm32l0xx_hal_rtc_ex.c ****   /* Configure the Wakeup Timer counter */
1146:Drivers/STM32L0xx_HAL_Driver/Src/stm32l0xx_hal_rtc_ex.c ****   hrtc->Instance->WUTR = (uint32_t)WakeUpCounter;
 1409              		.loc 1 1146 0
 1410 00b2 3368     		ldr	r3, [r6]
 1411 00b4 5D61     		str	r5, [r3, #20]
1147:Drivers/STM32L0xx_HAL_Driver/Src/stm32l0xx_hal_rtc_ex.c **** 
1148:Drivers/STM32L0xx_HAL_Driver/Src/stm32l0xx_hal_rtc_ex.c ****    /* Enable the Wakeup Timer */
1149:Drivers/STM32L0xx_HAL_Driver/Src/stm32l0xx_hal_rtc_ex.c ****   __HAL_RTC_WAKEUPTIMER_ENABLE(hrtc);
 1412              		.loc 1 1149 0
 1413 00b6 3268     		ldr	r2, [r6]
 1414 00b8 9368     		ldr	r3, [r2, #8]
ARM GAS  /tmp/ccZ63Pwo.s 			page 46


 1415 00ba 8021     		mov	r1, #128
 1416 00bc C900     		lsl	r1, r1, #3
 1417 00be 0B43     		orr	r3, r1
 1418 00c0 9360     		str	r3, [r2, #8]
1150:Drivers/STM32L0xx_HAL_Driver/Src/stm32l0xx_hal_rtc_ex.c **** 
1151:Drivers/STM32L0xx_HAL_Driver/Src/stm32l0xx_hal_rtc_ex.c ****   /* Enable the write protection for RTC registers */
1152:Drivers/STM32L0xx_HAL_Driver/Src/stm32l0xx_hal_rtc_ex.c ****   __HAL_RTC_WRITEPROTECTION_ENABLE(hrtc);
 1419              		.loc 1 1152 0
 1420 00c2 3368     		ldr	r3, [r6]
 1421 00c4 FF22     		mov	r2, #255
 1422 00c6 5A62     		str	r2, [r3, #36]
1153:Drivers/STM32L0xx_HAL_Driver/Src/stm32l0xx_hal_rtc_ex.c **** 
1154:Drivers/STM32L0xx_HAL_Driver/Src/stm32l0xx_hal_rtc_ex.c ****   hrtc->State = HAL_RTC_STATE_READY;
 1423              		.loc 1 1154 0
 1424 00c8 FE3A     		sub	r2, r2, #254
 1425 00ca 2123     		mov	r3, #33
 1426 00cc F254     		strb	r2, [r6, r3]
1155:Drivers/STM32L0xx_HAL_Driver/Src/stm32l0xx_hal_rtc_ex.c **** 
1156:Drivers/STM32L0xx_HAL_Driver/Src/stm32l0xx_hal_rtc_ex.c ****   /* Process Unlocked */
1157:Drivers/STM32L0xx_HAL_Driver/Src/stm32l0xx_hal_rtc_ex.c ****   __HAL_UNLOCK(hrtc);
 1427              		.loc 1 1157 0
 1428 00ce 0022     		mov	r2, #0
 1429 00d0 013B     		sub	r3, r3, #1
 1430 00d2 F254     		strb	r2, [r6, r3]
1158:Drivers/STM32L0xx_HAL_Driver/Src/stm32l0xx_hal_rtc_ex.c **** 
1159:Drivers/STM32L0xx_HAL_Driver/Src/stm32l0xx_hal_rtc_ex.c ****   return HAL_OK;
 1431              		.loc 1 1159 0
 1432 00d4 0020     		mov	r0, #0
 1433 00d6 00E0     		b	.L82
 1434              	.LVL111:
 1435              	.L88:
1089:Drivers/STM32L0xx_HAL_Driver/Src/stm32l0xx_hal_rtc_ex.c **** 
 1436              		.loc 1 1089 0
 1437 00d8 0220     		mov	r0, #2
 1438              	.LVL112:
 1439              	.L82:
1160:Drivers/STM32L0xx_HAL_Driver/Src/stm32l0xx_hal_rtc_ex.c **** }
 1440              		.loc 1 1160 0
 1441              		@ sp needed
 1442 00da F8BD     		pop	{r3, r4, r5, r6, r7, pc}
 1443              	.L90:
 1444              		.align	2
 1445              	.L89:
 1446 00dc FFFBFFFF 		.word	-1025
 1447              		.cfi_endproc
 1448              	.LFE50:
 1450              		.section	.text.HAL_RTCEx_SetWakeUpTimer_IT,"ax",%progbits
 1451              		.align	2
 1452              		.global	HAL_RTCEx_SetWakeUpTimer_IT
 1453              		.code	16
 1454              		.thumb_func
 1456              	HAL_RTCEx_SetWakeUpTimer_IT:
 1457              	.LFB51:
1161:Drivers/STM32L0xx_HAL_Driver/Src/stm32l0xx_hal_rtc_ex.c **** 
1162:Drivers/STM32L0xx_HAL_Driver/Src/stm32l0xx_hal_rtc_ex.c **** /**
1163:Drivers/STM32L0xx_HAL_Driver/Src/stm32l0xx_hal_rtc_ex.c ****   * @brief  Set wake up timer with interrupt.
1164:Drivers/STM32L0xx_HAL_Driver/Src/stm32l0xx_hal_rtc_ex.c ****   * @param  hrtc: RTC handle
ARM GAS  /tmp/ccZ63Pwo.s 			page 47


1165:Drivers/STM32L0xx_HAL_Driver/Src/stm32l0xx_hal_rtc_ex.c ****   * @param  WakeUpCounter: Wake up counter
1166:Drivers/STM32L0xx_HAL_Driver/Src/stm32l0xx_hal_rtc_ex.c ****   * @param  WakeUpClock: Wake up clock  
1167:Drivers/STM32L0xx_HAL_Driver/Src/stm32l0xx_hal_rtc_ex.c ****   * @retval HAL status
1168:Drivers/STM32L0xx_HAL_Driver/Src/stm32l0xx_hal_rtc_ex.c ****   */
1169:Drivers/STM32L0xx_HAL_Driver/Src/stm32l0xx_hal_rtc_ex.c **** HAL_StatusTypeDef HAL_RTCEx_SetWakeUpTimer_IT(RTC_HandleTypeDef *hrtc, uint32_t WakeUpCounter, uint
1170:Drivers/STM32L0xx_HAL_Driver/Src/stm32l0xx_hal_rtc_ex.c **** {
 1458              		.loc 1 1170 0
 1459              		.cfi_startproc
 1460              	.LVL113:
 1461 0000 F8B5     		push	{r3, r4, r5, r6, r7, lr}
 1462              	.LCFI12:
 1463              		.cfi_def_cfa_offset 24
 1464              		.cfi_offset 3, -24
 1465              		.cfi_offset 4, -20
 1466              		.cfi_offset 5, -16
 1467              		.cfi_offset 6, -12
 1468              		.cfi_offset 7, -8
 1469              		.cfi_offset 14, -4
 1470              	.LVL114:
1171:Drivers/STM32L0xx_HAL_Driver/Src/stm32l0xx_hal_rtc_ex.c ****   uint32_t tickstart = 0U;
1172:Drivers/STM32L0xx_HAL_Driver/Src/stm32l0xx_hal_rtc_ex.c **** 
1173:Drivers/STM32L0xx_HAL_Driver/Src/stm32l0xx_hal_rtc_ex.c ****   /* Check the parameters */
1174:Drivers/STM32L0xx_HAL_Driver/Src/stm32l0xx_hal_rtc_ex.c ****   assert_param(IS_RTC_WAKEUP_CLOCK(WakeUpClock));
1175:Drivers/STM32L0xx_HAL_Driver/Src/stm32l0xx_hal_rtc_ex.c ****   assert_param(IS_RTC_WAKEUP_COUNTER(WakeUpCounter));
1176:Drivers/STM32L0xx_HAL_Driver/Src/stm32l0xx_hal_rtc_ex.c **** 
1177:Drivers/STM32L0xx_HAL_Driver/Src/stm32l0xx_hal_rtc_ex.c ****   /* Process Locked */ 
1178:Drivers/STM32L0xx_HAL_Driver/Src/stm32l0xx_hal_rtc_ex.c ****   __HAL_LOCK(hrtc);
 1471              		.loc 1 1178 0
 1472 0002 2023     		mov	r3, #32
 1473 0004 C35C     		ldrb	r3, [r0, r3]
 1474 0006 012B     		cmp	r3, #1
 1475 0008 7CD0     		beq	.L98
 1476 000a 141C     		mov	r4, r2
 1477 000c 0D1C     		mov	r5, r1
 1478 000e 061C     		mov	r6, r0
 1479              		.loc 1 1178 0 is_stmt 0 discriminator 2
 1480 0010 0122     		mov	r2, #1
 1481              	.LVL115:
 1482 0012 2023     		mov	r3, #32
 1483 0014 C254     		strb	r2, [r0, r3]
1179:Drivers/STM32L0xx_HAL_Driver/Src/stm32l0xx_hal_rtc_ex.c **** 
1180:Drivers/STM32L0xx_HAL_Driver/Src/stm32l0xx_hal_rtc_ex.c ****   hrtc->State = HAL_RTC_STATE_BUSY;
 1484              		.loc 1 1180 0 is_stmt 1 discriminator 2
 1485 0016 0132     		add	r2, r2, #1
 1486 0018 0133     		add	r3, r3, #1
 1487 001a C254     		strb	r2, [r0, r3]
1181:Drivers/STM32L0xx_HAL_Driver/Src/stm32l0xx_hal_rtc_ex.c **** 
1182:Drivers/STM32L0xx_HAL_Driver/Src/stm32l0xx_hal_rtc_ex.c ****   /* Disable the write protection for RTC registers */
1183:Drivers/STM32L0xx_HAL_Driver/Src/stm32l0xx_hal_rtc_ex.c ****   __HAL_RTC_WRITEPROTECTION_DISABLE(hrtc);
 1488              		.loc 1 1183 0 discriminator 2
 1489 001c 0368     		ldr	r3, [r0]
 1490 001e C832     		add	r2, r2, #200
 1491 0020 5A62     		str	r2, [r3, #36]
 1492 0022 0368     		ldr	r3, [r0]
 1493 0024 773A     		sub	r2, r2, #119
 1494 0026 5A62     		str	r2, [r3, #36]
1184:Drivers/STM32L0xx_HAL_Driver/Src/stm32l0xx_hal_rtc_ex.c **** 
ARM GAS  /tmp/ccZ63Pwo.s 			page 48


1185:Drivers/STM32L0xx_HAL_Driver/Src/stm32l0xx_hal_rtc_ex.c ****   /*Check RTC WUTWF flag is reset only when wake up timer enabled*/
1186:Drivers/STM32L0xx_HAL_Driver/Src/stm32l0xx_hal_rtc_ex.c ****   if((hrtc->Instance->CR & RTC_CR_WUTE) != RESET){
 1495              		.loc 1 1186 0 discriminator 2
 1496 0028 0368     		ldr	r3, [r0]
 1497 002a 9B68     		ldr	r3, [r3, #8]
 1498 002c 5B05     		lsl	r3, r3, #21
 1499 002e 19D5     		bpl	.L93
1187:Drivers/STM32L0xx_HAL_Driver/Src/stm32l0xx_hal_rtc_ex.c ****     tickstart = HAL_GetTick();
 1500              		.loc 1 1187 0
 1501 0030 FFF7FEFF 		bl	HAL_GetTick
 1502              	.LVL116:
 1503 0034 071C     		mov	r7, r0
 1504              	.LVL117:
1188:Drivers/STM32L0xx_HAL_Driver/Src/stm32l0xx_hal_rtc_ex.c ****  
1189:Drivers/STM32L0xx_HAL_Driver/Src/stm32l0xx_hal_rtc_ex.c ****    /* Wait till RTC WUTWF flag is reset and if Time out is reached exit */
1190:Drivers/STM32L0xx_HAL_Driver/Src/stm32l0xx_hal_rtc_ex.c ****    while(__HAL_RTC_WAKEUPTIMER_GET_FLAG(hrtc, RTC_FLAG_WUTWF) == SET)
 1505              		.loc 1 1190 0
 1506 0036 11E0     		b	.L94
 1507              	.LVL118:
 1508              	.L95:
1191:Drivers/STM32L0xx_HAL_Driver/Src/stm32l0xx_hal_rtc_ex.c ****    {
1192:Drivers/STM32L0xx_HAL_Driver/Src/stm32l0xx_hal_rtc_ex.c ****     if((HAL_GetTick() - tickstart ) > RTC_TIMEOUT_VALUE)
 1509              		.loc 1 1192 0
 1510 0038 FFF7FEFF 		bl	HAL_GetTick
 1511              	.LVL119:
 1512 003c C01B     		sub	r0, r0, r7
 1513 003e FA23     		mov	r3, #250
 1514 0040 9B00     		lsl	r3, r3, #2
 1515 0042 9842     		cmp	r0, r3
 1516 0044 0AD9     		bls	.L94
1193:Drivers/STM32L0xx_HAL_Driver/Src/stm32l0xx_hal_rtc_ex.c ****       {
1194:Drivers/STM32L0xx_HAL_Driver/Src/stm32l0xx_hal_rtc_ex.c ****        /* Enable the write protection for RTC registers */
1195:Drivers/STM32L0xx_HAL_Driver/Src/stm32l0xx_hal_rtc_ex.c ****        __HAL_RTC_WRITEPROTECTION_ENABLE(hrtc);
 1517              		.loc 1 1195 0
 1518 0046 3368     		ldr	r3, [r6]
 1519 0048 FF22     		mov	r2, #255
 1520 004a 5A62     		str	r2, [r3, #36]
1196:Drivers/STM32L0xx_HAL_Driver/Src/stm32l0xx_hal_rtc_ex.c **** 
1197:Drivers/STM32L0xx_HAL_Driver/Src/stm32l0xx_hal_rtc_ex.c ****        hrtc->State = HAL_RTC_STATE_TIMEOUT;
 1521              		.loc 1 1197 0
 1522 004c FC3A     		sub	r2, r2, #252
 1523 004e 2123     		mov	r3, #33
 1524 0050 F254     		strb	r2, [r6, r3]
1198:Drivers/STM32L0xx_HAL_Driver/Src/stm32l0xx_hal_rtc_ex.c **** 
1199:Drivers/STM32L0xx_HAL_Driver/Src/stm32l0xx_hal_rtc_ex.c ****        /* Process Unlocked */ 
1200:Drivers/STM32L0xx_HAL_Driver/Src/stm32l0xx_hal_rtc_ex.c ****        __HAL_UNLOCK(hrtc);
 1525              		.loc 1 1200 0
 1526 0052 0022     		mov	r2, #0
 1527 0054 013B     		sub	r3, r3, #1
 1528 0056 F254     		strb	r2, [r6, r3]
1201:Drivers/STM32L0xx_HAL_Driver/Src/stm32l0xx_hal_rtc_ex.c **** 
1202:Drivers/STM32L0xx_HAL_Driver/Src/stm32l0xx_hal_rtc_ex.c ****        return HAL_TIMEOUT;
 1529              		.loc 1 1202 0
 1530 0058 0320     		mov	r0, #3
 1531 005a 54E0     		b	.L92
 1532              	.L94:
1190:Drivers/STM32L0xx_HAL_Driver/Src/stm32l0xx_hal_rtc_ex.c ****    {
ARM GAS  /tmp/ccZ63Pwo.s 			page 49


 1533              		.loc 1 1190 0
 1534 005c 3368     		ldr	r3, [r6]
 1535 005e DB68     		ldr	r3, [r3, #12]
 1536 0060 5B07     		lsl	r3, r3, #29
 1537 0062 E9D4     		bmi	.L95
 1538              	.LVL120:
 1539              	.L93:
1203:Drivers/STM32L0xx_HAL_Driver/Src/stm32l0xx_hal_rtc_ex.c ****       }
1204:Drivers/STM32L0xx_HAL_Driver/Src/stm32l0xx_hal_rtc_ex.c ****     }
1205:Drivers/STM32L0xx_HAL_Driver/Src/stm32l0xx_hal_rtc_ex.c ****   }
1206:Drivers/STM32L0xx_HAL_Driver/Src/stm32l0xx_hal_rtc_ex.c ****   /* Disable the Wake-Up timer */
1207:Drivers/STM32L0xx_HAL_Driver/Src/stm32l0xx_hal_rtc_ex.c ****   __HAL_RTC_WAKEUPTIMER_DISABLE(hrtc);
 1540              		.loc 1 1207 0
 1541 0064 3268     		ldr	r2, [r6]
 1542 0066 9168     		ldr	r1, [r2, #8]
 1543 0068 274B     		ldr	r3, .L99
 1544 006a 0B40     		and	r3, r1
 1545 006c 9360     		str	r3, [r2, #8]
1208:Drivers/STM32L0xx_HAL_Driver/Src/stm32l0xx_hal_rtc_ex.c **** 
1209:Drivers/STM32L0xx_HAL_Driver/Src/stm32l0xx_hal_rtc_ex.c ****   /* Clear flag Wake-Up */
1210:Drivers/STM32L0xx_HAL_Driver/Src/stm32l0xx_hal_rtc_ex.c ****   __HAL_RTC_WAKEUPTIMER_CLEAR_FLAG(hrtc, RTC_FLAG_WUTF);
 1546              		.loc 1 1210 0
 1547 006e 3268     		ldr	r2, [r6]
 1548 0070 D368     		ldr	r3, [r2, #12]
 1549 0072 FF21     		mov	r1, #255
 1550 0074 0B40     		and	r3, r1
 1551 0076 2549     		ldr	r1, .L99+4
 1552 0078 0B43     		orr	r3, r1
 1553 007a D360     		str	r3, [r2, #12]
1211:Drivers/STM32L0xx_HAL_Driver/Src/stm32l0xx_hal_rtc_ex.c **** 
1212:Drivers/STM32L0xx_HAL_Driver/Src/stm32l0xx_hal_rtc_ex.c ****   tickstart = HAL_GetTick();
 1554              		.loc 1 1212 0
 1555 007c FFF7FEFF 		bl	HAL_GetTick
 1556              	.LVL121:
 1557 0080 071C     		mov	r7, r0
 1558              	.LVL122:
1213:Drivers/STM32L0xx_HAL_Driver/Src/stm32l0xx_hal_rtc_ex.c **** 
1214:Drivers/STM32L0xx_HAL_Driver/Src/stm32l0xx_hal_rtc_ex.c ****   /* Wait till RTC WUTWF flag is set and if Time out is reached exit */
1215:Drivers/STM32L0xx_HAL_Driver/Src/stm32l0xx_hal_rtc_ex.c ****   while(__HAL_RTC_WAKEUPTIMER_GET_FLAG(hrtc, RTC_FLAG_WUTWF) == RESET)
 1559              		.loc 1 1215 0
 1560 0082 11E0     		b	.L96
 1561              	.LVL123:
 1562              	.L97:
1216:Drivers/STM32L0xx_HAL_Driver/Src/stm32l0xx_hal_rtc_ex.c ****   {
1217:Drivers/STM32L0xx_HAL_Driver/Src/stm32l0xx_hal_rtc_ex.c ****     if((HAL_GetTick() - tickstart ) > RTC_TIMEOUT_VALUE)
 1563              		.loc 1 1217 0
 1564 0084 FFF7FEFF 		bl	HAL_GetTick
 1565              	.LVL124:
 1566 0088 C01B     		sub	r0, r0, r7
 1567 008a FA23     		mov	r3, #250
 1568 008c 9B00     		lsl	r3, r3, #2
 1569 008e 9842     		cmp	r0, r3
 1570 0090 0AD9     		bls	.L96
1218:Drivers/STM32L0xx_HAL_Driver/Src/stm32l0xx_hal_rtc_ex.c ****     {
1219:Drivers/STM32L0xx_HAL_Driver/Src/stm32l0xx_hal_rtc_ex.c ****       /* Enable the write protection for RTC registers */
1220:Drivers/STM32L0xx_HAL_Driver/Src/stm32l0xx_hal_rtc_ex.c ****       __HAL_RTC_WRITEPROTECTION_ENABLE(hrtc);
 1571              		.loc 1 1220 0
ARM GAS  /tmp/ccZ63Pwo.s 			page 50


 1572 0092 3368     		ldr	r3, [r6]
 1573 0094 FF22     		mov	r2, #255
 1574 0096 5A62     		str	r2, [r3, #36]
1221:Drivers/STM32L0xx_HAL_Driver/Src/stm32l0xx_hal_rtc_ex.c **** 
1222:Drivers/STM32L0xx_HAL_Driver/Src/stm32l0xx_hal_rtc_ex.c ****       hrtc->State = HAL_RTC_STATE_TIMEOUT; 
 1575              		.loc 1 1222 0
 1576 0098 FC3A     		sub	r2, r2, #252
 1577 009a 2123     		mov	r3, #33
 1578 009c F254     		strb	r2, [r6, r3]
1223:Drivers/STM32L0xx_HAL_Driver/Src/stm32l0xx_hal_rtc_ex.c **** 
1224:Drivers/STM32L0xx_HAL_Driver/Src/stm32l0xx_hal_rtc_ex.c ****       /* Process Unlocked */ 
1225:Drivers/STM32L0xx_HAL_Driver/Src/stm32l0xx_hal_rtc_ex.c ****       __HAL_UNLOCK(hrtc);
 1579              		.loc 1 1225 0
 1580 009e 0022     		mov	r2, #0
 1581 00a0 013B     		sub	r3, r3, #1
 1582 00a2 F254     		strb	r2, [r6, r3]
1226:Drivers/STM32L0xx_HAL_Driver/Src/stm32l0xx_hal_rtc_ex.c **** 
1227:Drivers/STM32L0xx_HAL_Driver/Src/stm32l0xx_hal_rtc_ex.c ****       return HAL_TIMEOUT;
 1583              		.loc 1 1227 0
 1584 00a4 0320     		mov	r0, #3
 1585 00a6 2EE0     		b	.L92
 1586              	.L96:
1215:Drivers/STM32L0xx_HAL_Driver/Src/stm32l0xx_hal_rtc_ex.c ****   {
 1587              		.loc 1 1215 0
 1588 00a8 3368     		ldr	r3, [r6]
 1589 00aa DA68     		ldr	r2, [r3, #12]
 1590 00ac 5207     		lsl	r2, r2, #29
 1591 00ae E9D5     		bpl	.L97
1228:Drivers/STM32L0xx_HAL_Driver/Src/stm32l0xx_hal_rtc_ex.c ****     }
1229:Drivers/STM32L0xx_HAL_Driver/Src/stm32l0xx_hal_rtc_ex.c ****   }
1230:Drivers/STM32L0xx_HAL_Driver/Src/stm32l0xx_hal_rtc_ex.c **** 
1231:Drivers/STM32L0xx_HAL_Driver/Src/stm32l0xx_hal_rtc_ex.c ****   /* Configure the Wakeup Timer counter */
1232:Drivers/STM32L0xx_HAL_Driver/Src/stm32l0xx_hal_rtc_ex.c ****   hrtc->Instance->WUTR = (uint32_t)WakeUpCounter;
 1592              		.loc 1 1232 0
 1593 00b0 5D61     		str	r5, [r3, #20]
1233:Drivers/STM32L0xx_HAL_Driver/Src/stm32l0xx_hal_rtc_ex.c **** 
1234:Drivers/STM32L0xx_HAL_Driver/Src/stm32l0xx_hal_rtc_ex.c ****   /* Clear the Wakeup Timer clock source bits in CR register */
1235:Drivers/STM32L0xx_HAL_Driver/Src/stm32l0xx_hal_rtc_ex.c ****   hrtc->Instance->CR &= (uint32_t)~RTC_CR_WUCKSEL;
 1594              		.loc 1 1235 0
 1595 00b2 3268     		ldr	r2, [r6]
 1596 00b4 9368     		ldr	r3, [r2, #8]
 1597 00b6 0721     		mov	r1, #7
 1598 00b8 8B43     		bic	r3, r1
 1599 00ba 9360     		str	r3, [r2, #8]
1236:Drivers/STM32L0xx_HAL_Driver/Src/stm32l0xx_hal_rtc_ex.c **** 
1237:Drivers/STM32L0xx_HAL_Driver/Src/stm32l0xx_hal_rtc_ex.c ****   /* Configure the clock source */
1238:Drivers/STM32L0xx_HAL_Driver/Src/stm32l0xx_hal_rtc_ex.c ****   hrtc->Instance->CR |= (uint32_t)WakeUpClock;
 1600              		.loc 1 1238 0
 1601 00bc 3368     		ldr	r3, [r6]
 1602 00be 9A68     		ldr	r2, [r3, #8]
 1603 00c0 1443     		orr	r4, r2
 1604              	.LVL125:
 1605 00c2 9C60     		str	r4, [r3, #8]
1239:Drivers/STM32L0xx_HAL_Driver/Src/stm32l0xx_hal_rtc_ex.c **** 
1240:Drivers/STM32L0xx_HAL_Driver/Src/stm32l0xx_hal_rtc_ex.c ****   /* RTC WakeUpTimer Interrupt Configuration: EXTI configuration */
1241:Drivers/STM32L0xx_HAL_Driver/Src/stm32l0xx_hal_rtc_ex.c ****   __HAL_RTC_WAKEUPTIMER_EXTI_ENABLE_IT();
 1606              		.loc 1 1241 0
ARM GAS  /tmp/ccZ63Pwo.s 			page 51


 1607 00c4 124B     		ldr	r3, .L99+8
 1608 00c6 1968     		ldr	r1, [r3]
 1609 00c8 8020     		mov	r0, #128
 1610 00ca 4003     		lsl	r0, r0, #13
 1611 00cc 0143     		orr	r1, r0
 1612 00ce 1960     		str	r1, [r3]
1242:Drivers/STM32L0xx_HAL_Driver/Src/stm32l0xx_hal_rtc_ex.c **** 
1243:Drivers/STM32L0xx_HAL_Driver/Src/stm32l0xx_hal_rtc_ex.c ****   __HAL_RTC_WAKEUPTIMER_EXTI_ENABLE_RISING_EDGE();
 1613              		.loc 1 1243 0
 1614 00d0 9A68     		ldr	r2, [r3, #8]
 1615 00d2 0243     		orr	r2, r0
 1616 00d4 9A60     		str	r2, [r3, #8]
1244:Drivers/STM32L0xx_HAL_Driver/Src/stm32l0xx_hal_rtc_ex.c **** 
1245:Drivers/STM32L0xx_HAL_Driver/Src/stm32l0xx_hal_rtc_ex.c ****   /* Configure the Interrupt in the RTC_CR register */
1246:Drivers/STM32L0xx_HAL_Driver/Src/stm32l0xx_hal_rtc_ex.c ****   __HAL_RTC_WAKEUPTIMER_ENABLE_IT(hrtc,RTC_IT_WUT);
 1617              		.loc 1 1246 0
 1618 00d6 3268     		ldr	r2, [r6]
 1619 00d8 9368     		ldr	r3, [r2, #8]
 1620 00da 8021     		mov	r1, #128
 1621 00dc C901     		lsl	r1, r1, #7
 1622 00de 0B43     		orr	r3, r1
 1623 00e0 9360     		str	r3, [r2, #8]
1247:Drivers/STM32L0xx_HAL_Driver/Src/stm32l0xx_hal_rtc_ex.c ****   
1248:Drivers/STM32L0xx_HAL_Driver/Src/stm32l0xx_hal_rtc_ex.c ****   /* Enable the Wakeup Timer */
1249:Drivers/STM32L0xx_HAL_Driver/Src/stm32l0xx_hal_rtc_ex.c ****   __HAL_RTC_WAKEUPTIMER_ENABLE(hrtc);
 1624              		.loc 1 1249 0
 1625 00e2 3268     		ldr	r2, [r6]
 1626 00e4 9368     		ldr	r3, [r2, #8]
 1627 00e6 8021     		mov	r1, #128
 1628 00e8 C900     		lsl	r1, r1, #3
 1629 00ea 0B43     		orr	r3, r1
 1630 00ec 9360     		str	r3, [r2, #8]
1250:Drivers/STM32L0xx_HAL_Driver/Src/stm32l0xx_hal_rtc_ex.c **** 
1251:Drivers/STM32L0xx_HAL_Driver/Src/stm32l0xx_hal_rtc_ex.c ****   /* Enable the write protection for RTC registers */
1252:Drivers/STM32L0xx_HAL_Driver/Src/stm32l0xx_hal_rtc_ex.c ****   __HAL_RTC_WRITEPROTECTION_ENABLE(hrtc);
 1631              		.loc 1 1252 0
 1632 00ee 3368     		ldr	r3, [r6]
 1633 00f0 FF22     		mov	r2, #255
 1634 00f2 5A62     		str	r2, [r3, #36]
1253:Drivers/STM32L0xx_HAL_Driver/Src/stm32l0xx_hal_rtc_ex.c **** 
1254:Drivers/STM32L0xx_HAL_Driver/Src/stm32l0xx_hal_rtc_ex.c ****   hrtc->State = HAL_RTC_STATE_READY; 
 1635              		.loc 1 1254 0
 1636 00f4 FE3A     		sub	r2, r2, #254
 1637 00f6 2123     		mov	r3, #33
 1638 00f8 F254     		strb	r2, [r6, r3]
1255:Drivers/STM32L0xx_HAL_Driver/Src/stm32l0xx_hal_rtc_ex.c **** 
1256:Drivers/STM32L0xx_HAL_Driver/Src/stm32l0xx_hal_rtc_ex.c ****   /* Process Unlocked */
1257:Drivers/STM32L0xx_HAL_Driver/Src/stm32l0xx_hal_rtc_ex.c ****   __HAL_UNLOCK(hrtc);
 1639              		.loc 1 1257 0
 1640 00fa 0022     		mov	r2, #0
 1641 00fc 013B     		sub	r3, r3, #1
 1642 00fe F254     		strb	r2, [r6, r3]
1258:Drivers/STM32L0xx_HAL_Driver/Src/stm32l0xx_hal_rtc_ex.c **** 
1259:Drivers/STM32L0xx_HAL_Driver/Src/stm32l0xx_hal_rtc_ex.c ****   return HAL_OK;
 1643              		.loc 1 1259 0
 1644 0100 0020     		mov	r0, #0
 1645 0102 00E0     		b	.L92
ARM GAS  /tmp/ccZ63Pwo.s 			page 52


 1646              	.LVL126:
 1647              	.L98:
1178:Drivers/STM32L0xx_HAL_Driver/Src/stm32l0xx_hal_rtc_ex.c **** 
 1648              		.loc 1 1178 0
 1649 0104 0220     		mov	r0, #2
 1650              	.LVL127:
 1651              	.L92:
1260:Drivers/STM32L0xx_HAL_Driver/Src/stm32l0xx_hal_rtc_ex.c **** }
 1652              		.loc 1 1260 0
 1653              		@ sp needed
 1654 0106 F8BD     		pop	{r3, r4, r5, r6, r7, pc}
 1655              	.L100:
 1656              		.align	2
 1657              	.L99:
 1658 0108 FFFBFFFF 		.word	-1025
 1659 010c 7FFBFFFF 		.word	-1153
 1660 0110 00040140 		.word	1073808384
 1661              		.cfi_endproc
 1662              	.LFE51:
 1664              		.section	.text.HAL_RTCEx_DeactivateWakeUpTimer,"ax",%progbits
 1665              		.align	2
 1666              		.global	HAL_RTCEx_DeactivateWakeUpTimer
 1667              		.code	16
 1668              		.thumb_func
 1670              	HAL_RTCEx_DeactivateWakeUpTimer:
 1671              	.LFB52:
1261:Drivers/STM32L0xx_HAL_Driver/Src/stm32l0xx_hal_rtc_ex.c **** 
1262:Drivers/STM32L0xx_HAL_Driver/Src/stm32l0xx_hal_rtc_ex.c **** /**
1263:Drivers/STM32L0xx_HAL_Driver/Src/stm32l0xx_hal_rtc_ex.c ****   * @brief  Deactivate wake up timer counter.
1264:Drivers/STM32L0xx_HAL_Driver/Src/stm32l0xx_hal_rtc_ex.c ****   * @param  hrtc: RTC handle 
1265:Drivers/STM32L0xx_HAL_Driver/Src/stm32l0xx_hal_rtc_ex.c ****   * @retval HAL status
1266:Drivers/STM32L0xx_HAL_Driver/Src/stm32l0xx_hal_rtc_ex.c ****   */
1267:Drivers/STM32L0xx_HAL_Driver/Src/stm32l0xx_hal_rtc_ex.c **** uint32_t HAL_RTCEx_DeactivateWakeUpTimer(RTC_HandleTypeDef *hrtc)
1268:Drivers/STM32L0xx_HAL_Driver/Src/stm32l0xx_hal_rtc_ex.c **** {
 1672              		.loc 1 1268 0
 1673              		.cfi_startproc
 1674              	.LVL128:
 1675 0000 38B5     		push	{r3, r4, r5, lr}
 1676              	.LCFI13:
 1677              		.cfi_def_cfa_offset 16
 1678              		.cfi_offset 3, -16
 1679              		.cfi_offset 4, -12
 1680              		.cfi_offset 5, -8
 1681              		.cfi_offset 14, -4
 1682              	.LVL129:
1269:Drivers/STM32L0xx_HAL_Driver/Src/stm32l0xx_hal_rtc_ex.c ****   uint32_t tickstart = 0U;
1270:Drivers/STM32L0xx_HAL_Driver/Src/stm32l0xx_hal_rtc_ex.c **** 
1271:Drivers/STM32L0xx_HAL_Driver/Src/stm32l0xx_hal_rtc_ex.c ****   /* Process Locked */ 
1272:Drivers/STM32L0xx_HAL_Driver/Src/stm32l0xx_hal_rtc_ex.c ****   __HAL_LOCK(hrtc);
 1683              		.loc 1 1272 0
 1684 0002 2023     		mov	r3, #32
 1685 0004 C35C     		ldrb	r3, [r0, r3]
 1686 0006 012B     		cmp	r3, #1
 1687 0008 3AD0     		beq	.L105
 1688 000a 041C     		mov	r4, r0
 1689              		.loc 1 1272 0 is_stmt 0 discriminator 2
 1690 000c 0122     		mov	r2, #1
ARM GAS  /tmp/ccZ63Pwo.s 			page 53


 1691 000e 2023     		mov	r3, #32
 1692 0010 C254     		strb	r2, [r0, r3]
1273:Drivers/STM32L0xx_HAL_Driver/Src/stm32l0xx_hal_rtc_ex.c **** 
1274:Drivers/STM32L0xx_HAL_Driver/Src/stm32l0xx_hal_rtc_ex.c ****   hrtc->State = HAL_RTC_STATE_BUSY;
 1693              		.loc 1 1274 0 is_stmt 1 discriminator 2
 1694 0012 0132     		add	r2, r2, #1
 1695 0014 0133     		add	r3, r3, #1
 1696 0016 C254     		strb	r2, [r0, r3]
1275:Drivers/STM32L0xx_HAL_Driver/Src/stm32l0xx_hal_rtc_ex.c **** 
1276:Drivers/STM32L0xx_HAL_Driver/Src/stm32l0xx_hal_rtc_ex.c ****   /* Disable the write protection for RTC registers */
1277:Drivers/STM32L0xx_HAL_Driver/Src/stm32l0xx_hal_rtc_ex.c ****   __HAL_RTC_WRITEPROTECTION_DISABLE(hrtc);
 1697              		.loc 1 1277 0 discriminator 2
 1698 0018 0368     		ldr	r3, [r0]
 1699 001a C832     		add	r2, r2, #200
 1700 001c 5A62     		str	r2, [r3, #36]
 1701 001e 0368     		ldr	r3, [r0]
 1702 0020 773A     		sub	r2, r2, #119
 1703 0022 5A62     		str	r2, [r3, #36]
1278:Drivers/STM32L0xx_HAL_Driver/Src/stm32l0xx_hal_rtc_ex.c **** 
1279:Drivers/STM32L0xx_HAL_Driver/Src/stm32l0xx_hal_rtc_ex.c ****   /* Disable the Wakeup Timer */
1280:Drivers/STM32L0xx_HAL_Driver/Src/stm32l0xx_hal_rtc_ex.c ****   __HAL_RTC_WAKEUPTIMER_DISABLE(hrtc);
 1704              		.loc 1 1280 0 discriminator 2
 1705 0024 0268     		ldr	r2, [r0]
 1706 0026 9168     		ldr	r1, [r2, #8]
 1707 0028 164B     		ldr	r3, .L106
 1708 002a 0B40     		and	r3, r1
 1709 002c 9360     		str	r3, [r2, #8]
1281:Drivers/STM32L0xx_HAL_Driver/Src/stm32l0xx_hal_rtc_ex.c **** 
1282:Drivers/STM32L0xx_HAL_Driver/Src/stm32l0xx_hal_rtc_ex.c ****   /* In case of interrupt mode is used, the interrupt source must disabled */
1283:Drivers/STM32L0xx_HAL_Driver/Src/stm32l0xx_hal_rtc_ex.c ****   __HAL_RTC_WAKEUPTIMER_DISABLE_IT(hrtc,RTC_IT_WUT);
 1710              		.loc 1 1283 0 discriminator 2
 1711 002e 0268     		ldr	r2, [r0]
 1712 0030 9168     		ldr	r1, [r2, #8]
 1713 0032 154B     		ldr	r3, .L106+4
 1714 0034 0B40     		and	r3, r1
 1715 0036 9360     		str	r3, [r2, #8]
1284:Drivers/STM32L0xx_HAL_Driver/Src/stm32l0xx_hal_rtc_ex.c **** 
1285:Drivers/STM32L0xx_HAL_Driver/Src/stm32l0xx_hal_rtc_ex.c ****   tickstart = HAL_GetTick();
 1716              		.loc 1 1285 0 discriminator 2
 1717 0038 FFF7FEFF 		bl	HAL_GetTick
 1718              	.LVL130:
 1719 003c 051C     		mov	r5, r0
 1720              	.LVL131:
1286:Drivers/STM32L0xx_HAL_Driver/Src/stm32l0xx_hal_rtc_ex.c ****   /* Wait till RTC WUTWF flag is set and if Time out is reached exit */
1287:Drivers/STM32L0xx_HAL_Driver/Src/stm32l0xx_hal_rtc_ex.c ****   while(__HAL_RTC_WAKEUPTIMER_GET_FLAG(hrtc, RTC_FLAG_WUTWF) == RESET)
 1721              		.loc 1 1287 0 discriminator 2
 1722 003e 11E0     		b	.L103
 1723              	.LVL132:
 1724              	.L104:
1288:Drivers/STM32L0xx_HAL_Driver/Src/stm32l0xx_hal_rtc_ex.c ****   {
1289:Drivers/STM32L0xx_HAL_Driver/Src/stm32l0xx_hal_rtc_ex.c ****     if((HAL_GetTick() - tickstart ) > RTC_TIMEOUT_VALUE)
 1725              		.loc 1 1289 0
 1726 0040 FFF7FEFF 		bl	HAL_GetTick
 1727              	.LVL133:
 1728 0044 401B     		sub	r0, r0, r5
 1729 0046 FA23     		mov	r3, #250
 1730 0048 9B00     		lsl	r3, r3, #2
ARM GAS  /tmp/ccZ63Pwo.s 			page 54


 1731 004a 9842     		cmp	r0, r3
 1732 004c 0AD9     		bls	.L103
1290:Drivers/STM32L0xx_HAL_Driver/Src/stm32l0xx_hal_rtc_ex.c ****     {
1291:Drivers/STM32L0xx_HAL_Driver/Src/stm32l0xx_hal_rtc_ex.c ****       /* Enable the write protection for RTC registers */
1292:Drivers/STM32L0xx_HAL_Driver/Src/stm32l0xx_hal_rtc_ex.c ****       __HAL_RTC_WRITEPROTECTION_ENABLE(hrtc);
 1733              		.loc 1 1292 0
 1734 004e 2368     		ldr	r3, [r4]
 1735 0050 FF22     		mov	r2, #255
 1736 0052 5A62     		str	r2, [r3, #36]
1293:Drivers/STM32L0xx_HAL_Driver/Src/stm32l0xx_hal_rtc_ex.c **** 
1294:Drivers/STM32L0xx_HAL_Driver/Src/stm32l0xx_hal_rtc_ex.c ****       hrtc->State = HAL_RTC_STATE_TIMEOUT;
 1737              		.loc 1 1294 0
 1738 0054 FC3A     		sub	r2, r2, #252
 1739 0056 2123     		mov	r3, #33
 1740 0058 E254     		strb	r2, [r4, r3]
1295:Drivers/STM32L0xx_HAL_Driver/Src/stm32l0xx_hal_rtc_ex.c **** 
1296:Drivers/STM32L0xx_HAL_Driver/Src/stm32l0xx_hal_rtc_ex.c ****       /* Process Unlocked */
1297:Drivers/STM32L0xx_HAL_Driver/Src/stm32l0xx_hal_rtc_ex.c ****       __HAL_UNLOCK(hrtc);
 1741              		.loc 1 1297 0
 1742 005a 0022     		mov	r2, #0
 1743 005c 013B     		sub	r3, r3, #1
 1744 005e E254     		strb	r2, [r4, r3]
1298:Drivers/STM32L0xx_HAL_Driver/Src/stm32l0xx_hal_rtc_ex.c **** 
1299:Drivers/STM32L0xx_HAL_Driver/Src/stm32l0xx_hal_rtc_ex.c ****       return HAL_TIMEOUT;
 1745              		.loc 1 1299 0
 1746 0060 0320     		mov	r0, #3
 1747 0062 0EE0     		b	.L102
 1748              	.L103:
1287:Drivers/STM32L0xx_HAL_Driver/Src/stm32l0xx_hal_rtc_ex.c ****   {
 1749              		.loc 1 1287 0
 1750 0064 2368     		ldr	r3, [r4]
 1751 0066 DA68     		ldr	r2, [r3, #12]
 1752 0068 5207     		lsl	r2, r2, #29
 1753 006a E9D5     		bpl	.L104
1300:Drivers/STM32L0xx_HAL_Driver/Src/stm32l0xx_hal_rtc_ex.c ****     }
1301:Drivers/STM32L0xx_HAL_Driver/Src/stm32l0xx_hal_rtc_ex.c ****   }
1302:Drivers/STM32L0xx_HAL_Driver/Src/stm32l0xx_hal_rtc_ex.c **** 
1303:Drivers/STM32L0xx_HAL_Driver/Src/stm32l0xx_hal_rtc_ex.c ****   /* Enable the write protection for RTC registers */
1304:Drivers/STM32L0xx_HAL_Driver/Src/stm32l0xx_hal_rtc_ex.c ****   __HAL_RTC_WRITEPROTECTION_ENABLE(hrtc);
 1754              		.loc 1 1304 0
 1755 006c FF22     		mov	r2, #255
 1756 006e 5A62     		str	r2, [r3, #36]
1305:Drivers/STM32L0xx_HAL_Driver/Src/stm32l0xx_hal_rtc_ex.c **** 
1306:Drivers/STM32L0xx_HAL_Driver/Src/stm32l0xx_hal_rtc_ex.c ****   hrtc->State = HAL_RTC_STATE_READY;
 1757              		.loc 1 1306 0
 1758 0070 FE3A     		sub	r2, r2, #254
 1759 0072 2123     		mov	r3, #33
 1760 0074 E254     		strb	r2, [r4, r3]
1307:Drivers/STM32L0xx_HAL_Driver/Src/stm32l0xx_hal_rtc_ex.c **** 
1308:Drivers/STM32L0xx_HAL_Driver/Src/stm32l0xx_hal_rtc_ex.c ****   /* Process Unlocked */
1309:Drivers/STM32L0xx_HAL_Driver/Src/stm32l0xx_hal_rtc_ex.c ****   __HAL_UNLOCK(hrtc);
 1761              		.loc 1 1309 0
 1762 0076 0022     		mov	r2, #0
 1763 0078 013B     		sub	r3, r3, #1
 1764 007a E254     		strb	r2, [r4, r3]
1310:Drivers/STM32L0xx_HAL_Driver/Src/stm32l0xx_hal_rtc_ex.c **** 
1311:Drivers/STM32L0xx_HAL_Driver/Src/stm32l0xx_hal_rtc_ex.c ****   return HAL_OK;
ARM GAS  /tmp/ccZ63Pwo.s 			page 55


 1765              		.loc 1 1311 0
 1766 007c 0020     		mov	r0, #0
 1767 007e 00E0     		b	.L102
 1768              	.LVL134:
 1769              	.L105:
1272:Drivers/STM32L0xx_HAL_Driver/Src/stm32l0xx_hal_rtc_ex.c **** 
 1770              		.loc 1 1272 0
 1771 0080 0220     		mov	r0, #2
 1772              	.LVL135:
 1773              	.L102:
1312:Drivers/STM32L0xx_HAL_Driver/Src/stm32l0xx_hal_rtc_ex.c **** }
 1774              		.loc 1 1312 0
 1775              		@ sp needed
 1776 0082 38BD     		pop	{r3, r4, r5, pc}
 1777              	.L107:
 1778              		.align	2
 1779              	.L106:
 1780 0084 FFFBFFFF 		.word	-1025
 1781 0088 FFBFFFFF 		.word	-16385
 1782              		.cfi_endproc
 1783              	.LFE52:
 1785              		.section	.text.HAL_RTCEx_GetWakeUpTimer,"ax",%progbits
 1786              		.align	2
 1787              		.global	HAL_RTCEx_GetWakeUpTimer
 1788              		.code	16
 1789              		.thumb_func
 1791              	HAL_RTCEx_GetWakeUpTimer:
 1792              	.LFB53:
1313:Drivers/STM32L0xx_HAL_Driver/Src/stm32l0xx_hal_rtc_ex.c **** 
1314:Drivers/STM32L0xx_HAL_Driver/Src/stm32l0xx_hal_rtc_ex.c **** /**
1315:Drivers/STM32L0xx_HAL_Driver/Src/stm32l0xx_hal_rtc_ex.c ****   * @brief  Get wake up timer counter.
1316:Drivers/STM32L0xx_HAL_Driver/Src/stm32l0xx_hal_rtc_ex.c ****   * @param  hrtc: RTC handle 
1317:Drivers/STM32L0xx_HAL_Driver/Src/stm32l0xx_hal_rtc_ex.c ****   * @retval Counter value
1318:Drivers/STM32L0xx_HAL_Driver/Src/stm32l0xx_hal_rtc_ex.c ****   */
1319:Drivers/STM32L0xx_HAL_Driver/Src/stm32l0xx_hal_rtc_ex.c **** uint32_t HAL_RTCEx_GetWakeUpTimer(RTC_HandleTypeDef *hrtc)
1320:Drivers/STM32L0xx_HAL_Driver/Src/stm32l0xx_hal_rtc_ex.c **** {
 1793              		.loc 1 1320 0
 1794              		.cfi_startproc
 1795              	.LVL136:
1321:Drivers/STM32L0xx_HAL_Driver/Src/stm32l0xx_hal_rtc_ex.c ****   /* Get the counter value */
1322:Drivers/STM32L0xx_HAL_Driver/Src/stm32l0xx_hal_rtc_ex.c ****   return ((uint32_t)(hrtc->Instance->WUTR & RTC_WUTR_WUT));
 1796              		.loc 1 1322 0
 1797 0000 0368     		ldr	r3, [r0]
 1798 0002 5869     		ldr	r0, [r3, #20]
 1799              	.LVL137:
 1800 0004 0004     		lsl	r0, r0, #16
 1801 0006 000C     		lsr	r0, r0, #16
1323:Drivers/STM32L0xx_HAL_Driver/Src/stm32l0xx_hal_rtc_ex.c **** }
 1802              		.loc 1 1323 0
 1803              		@ sp needed
 1804 0008 7047     		bx	lr
 1805              		.cfi_endproc
 1806              	.LFE53:
 1808 000a C046     		.section	.text.HAL_RTCEx_WakeUpTimerEventCallback,"ax",%progbits
 1809              		.align	2
 1810              		.weak	HAL_RTCEx_WakeUpTimerEventCallback
 1811              		.code	16
ARM GAS  /tmp/ccZ63Pwo.s 			page 56


 1812              		.thumb_func
 1814              	HAL_RTCEx_WakeUpTimerEventCallback:
 1815              	.LFB55:
1324:Drivers/STM32L0xx_HAL_Driver/Src/stm32l0xx_hal_rtc_ex.c **** 
1325:Drivers/STM32L0xx_HAL_Driver/Src/stm32l0xx_hal_rtc_ex.c **** /**
1326:Drivers/STM32L0xx_HAL_Driver/Src/stm32l0xx_hal_rtc_ex.c ****   * @brief  Handle Wake Up Timer interrupt request.
1327:Drivers/STM32L0xx_HAL_Driver/Src/stm32l0xx_hal_rtc_ex.c ****   * @param  hrtc: RTC handle
1328:Drivers/STM32L0xx_HAL_Driver/Src/stm32l0xx_hal_rtc_ex.c ****   * @retval None
1329:Drivers/STM32L0xx_HAL_Driver/Src/stm32l0xx_hal_rtc_ex.c ****   */
1330:Drivers/STM32L0xx_HAL_Driver/Src/stm32l0xx_hal_rtc_ex.c **** void HAL_RTCEx_WakeUpTimerIRQHandler(RTC_HandleTypeDef *hrtc)
1331:Drivers/STM32L0xx_HAL_Driver/Src/stm32l0xx_hal_rtc_ex.c **** {  
1332:Drivers/STM32L0xx_HAL_Driver/Src/stm32l0xx_hal_rtc_ex.c ****     /* Get the pending status of the WAKEUPTIMER Interrupt */
1333:Drivers/STM32L0xx_HAL_Driver/Src/stm32l0xx_hal_rtc_ex.c ****     if(__HAL_RTC_WAKEUPTIMER_GET_FLAG(hrtc, RTC_FLAG_WUTF) != RESET)
1334:Drivers/STM32L0xx_HAL_Driver/Src/stm32l0xx_hal_rtc_ex.c ****     {
1335:Drivers/STM32L0xx_HAL_Driver/Src/stm32l0xx_hal_rtc_ex.c ****       /* WAKEUPTIMER callback */ 
1336:Drivers/STM32L0xx_HAL_Driver/Src/stm32l0xx_hal_rtc_ex.c ****       HAL_RTCEx_WakeUpTimerEventCallback(hrtc);
1337:Drivers/STM32L0xx_HAL_Driver/Src/stm32l0xx_hal_rtc_ex.c ****       
1338:Drivers/STM32L0xx_HAL_Driver/Src/stm32l0xx_hal_rtc_ex.c ****       /* Clear the WAKEUPTIMER interrupt pending bit */
1339:Drivers/STM32L0xx_HAL_Driver/Src/stm32l0xx_hal_rtc_ex.c ****       __HAL_RTC_WAKEUPTIMER_CLEAR_FLAG(hrtc, RTC_FLAG_WUTF);
1340:Drivers/STM32L0xx_HAL_Driver/Src/stm32l0xx_hal_rtc_ex.c ****     }
1341:Drivers/STM32L0xx_HAL_Driver/Src/stm32l0xx_hal_rtc_ex.c **** 
1342:Drivers/STM32L0xx_HAL_Driver/Src/stm32l0xx_hal_rtc_ex.c **** 
1343:Drivers/STM32L0xx_HAL_Driver/Src/stm32l0xx_hal_rtc_ex.c ****   /* Clear the EXTI's line Flag for RTC WakeUpTimer */
1344:Drivers/STM32L0xx_HAL_Driver/Src/stm32l0xx_hal_rtc_ex.c ****   __HAL_RTC_WAKEUPTIMER_EXTI_CLEAR_FLAG();
1345:Drivers/STM32L0xx_HAL_Driver/Src/stm32l0xx_hal_rtc_ex.c ****   
1346:Drivers/STM32L0xx_HAL_Driver/Src/stm32l0xx_hal_rtc_ex.c ****   /* Change RTC state */
1347:Drivers/STM32L0xx_HAL_Driver/Src/stm32l0xx_hal_rtc_ex.c ****   hrtc->State = HAL_RTC_STATE_READY;
1348:Drivers/STM32L0xx_HAL_Driver/Src/stm32l0xx_hal_rtc_ex.c **** }
1349:Drivers/STM32L0xx_HAL_Driver/Src/stm32l0xx_hal_rtc_ex.c **** 
1350:Drivers/STM32L0xx_HAL_Driver/Src/stm32l0xx_hal_rtc_ex.c **** /**
1351:Drivers/STM32L0xx_HAL_Driver/Src/stm32l0xx_hal_rtc_ex.c ****   * @brief  Wake Up Timer callback.
1352:Drivers/STM32L0xx_HAL_Driver/Src/stm32l0xx_hal_rtc_ex.c ****   * @param  hrtc: RTC handle
1353:Drivers/STM32L0xx_HAL_Driver/Src/stm32l0xx_hal_rtc_ex.c ****   * @retval None
1354:Drivers/STM32L0xx_HAL_Driver/Src/stm32l0xx_hal_rtc_ex.c ****   */
1355:Drivers/STM32L0xx_HAL_Driver/Src/stm32l0xx_hal_rtc_ex.c **** __weak void HAL_RTCEx_WakeUpTimerEventCallback(RTC_HandleTypeDef *hrtc)
1356:Drivers/STM32L0xx_HAL_Driver/Src/stm32l0xx_hal_rtc_ex.c **** {
 1816              		.loc 1 1356 0
 1817              		.cfi_startproc
 1818              	.LVL138:
1357:Drivers/STM32L0xx_HAL_Driver/Src/stm32l0xx_hal_rtc_ex.c ****   /* Prevent unused argument(s) compilation warning */
1358:Drivers/STM32L0xx_HAL_Driver/Src/stm32l0xx_hal_rtc_ex.c ****   UNUSED(hrtc);
1359:Drivers/STM32L0xx_HAL_Driver/Src/stm32l0xx_hal_rtc_ex.c **** 
1360:Drivers/STM32L0xx_HAL_Driver/Src/stm32l0xx_hal_rtc_ex.c ****   /* NOTE : This function should not be modified, when the callback is needed,
1361:Drivers/STM32L0xx_HAL_Driver/Src/stm32l0xx_hal_rtc_ex.c ****             the HAL_RTCEx_WakeUpTimerEventCallback could be implemented in the user file
1362:Drivers/STM32L0xx_HAL_Driver/Src/stm32l0xx_hal_rtc_ex.c ****    */
1363:Drivers/STM32L0xx_HAL_Driver/Src/stm32l0xx_hal_rtc_ex.c **** }
 1819              		.loc 1 1363 0
 1820              		@ sp needed
 1821 0000 7047     		bx	lr
 1822              		.cfi_endproc
 1823              	.LFE55:
 1825 0002 C046     		.section	.text.HAL_RTCEx_WakeUpTimerIRQHandler,"ax",%progbits
 1826              		.align	2
 1827              		.global	HAL_RTCEx_WakeUpTimerIRQHandler
 1828              		.code	16
 1829              		.thumb_func
 1831              	HAL_RTCEx_WakeUpTimerIRQHandler:
ARM GAS  /tmp/ccZ63Pwo.s 			page 57


 1832              	.LFB54:
1331:Drivers/STM32L0xx_HAL_Driver/Src/stm32l0xx_hal_rtc_ex.c ****     /* Get the pending status of the WAKEUPTIMER Interrupt */
 1833              		.loc 1 1331 0
 1834              		.cfi_startproc
 1835              	.LVL139:
 1836 0000 10B5     		push	{r4, lr}
 1837              	.LCFI14:
 1838              		.cfi_def_cfa_offset 8
 1839              		.cfi_offset 4, -8
 1840              		.cfi_offset 14, -4
 1841 0002 041C     		mov	r4, r0
1333:Drivers/STM32L0xx_HAL_Driver/Src/stm32l0xx_hal_rtc_ex.c ****     {
 1842              		.loc 1 1333 0
 1843 0004 0368     		ldr	r3, [r0]
 1844 0006 DB68     		ldr	r3, [r3, #12]
 1845 0008 5B05     		lsl	r3, r3, #21
 1846 000a 08D5     		bpl	.L111
1336:Drivers/STM32L0xx_HAL_Driver/Src/stm32l0xx_hal_rtc_ex.c ****       
 1847              		.loc 1 1336 0
 1848 000c FFF7FEFF 		bl	HAL_RTCEx_WakeUpTimerEventCallback
 1849              	.LVL140:
1339:Drivers/STM32L0xx_HAL_Driver/Src/stm32l0xx_hal_rtc_ex.c ****     }
 1850              		.loc 1 1339 0
 1851 0010 2268     		ldr	r2, [r4]
 1852 0012 D368     		ldr	r3, [r2, #12]
 1853 0014 FF21     		mov	r1, #255
 1854 0016 0B40     		and	r3, r1
 1855 0018 0549     		ldr	r1, .L112
 1856 001a 0B43     		orr	r3, r1
 1857 001c D360     		str	r3, [r2, #12]
 1858              	.L111:
1344:Drivers/STM32L0xx_HAL_Driver/Src/stm32l0xx_hal_rtc_ex.c ****   
 1859              		.loc 1 1344 0
 1860 001e 8022     		mov	r2, #128
 1861 0020 5203     		lsl	r2, r2, #13
 1862 0022 044B     		ldr	r3, .L112+4
 1863 0024 5A61     		str	r2, [r3, #20]
1347:Drivers/STM32L0xx_HAL_Driver/Src/stm32l0xx_hal_rtc_ex.c **** }
 1864              		.loc 1 1347 0
 1865 0026 0122     		mov	r2, #1
 1866 0028 2123     		mov	r3, #33
 1867 002a E254     		strb	r2, [r4, r3]
1348:Drivers/STM32L0xx_HAL_Driver/Src/stm32l0xx_hal_rtc_ex.c **** 
 1868              		.loc 1 1348 0
 1869              		@ sp needed
 1870              	.LVL141:
 1871 002c 10BD     		pop	{r4, pc}
 1872              	.L113:
 1873 002e C046     		.align	2
 1874              	.L112:
 1875 0030 7FFBFFFF 		.word	-1153
 1876 0034 00040140 		.word	1073808384
 1877              		.cfi_endproc
 1878              	.LFE54:
 1880              		.section	.text.HAL_RTCEx_PollForWakeUpTimerEvent,"ax",%progbits
 1881              		.align	2
 1882              		.global	HAL_RTCEx_PollForWakeUpTimerEvent
ARM GAS  /tmp/ccZ63Pwo.s 			page 58


 1883              		.code	16
 1884              		.thumb_func
 1886              	HAL_RTCEx_PollForWakeUpTimerEvent:
 1887              	.LFB56:
1364:Drivers/STM32L0xx_HAL_Driver/Src/stm32l0xx_hal_rtc_ex.c **** 
1365:Drivers/STM32L0xx_HAL_Driver/Src/stm32l0xx_hal_rtc_ex.c **** 
1366:Drivers/STM32L0xx_HAL_Driver/Src/stm32l0xx_hal_rtc_ex.c **** /**
1367:Drivers/STM32L0xx_HAL_Driver/Src/stm32l0xx_hal_rtc_ex.c ****   * @brief  Handle Wake Up Timer Polling.
1368:Drivers/STM32L0xx_HAL_Driver/Src/stm32l0xx_hal_rtc_ex.c ****   * @param  hrtc: RTC handle
1369:Drivers/STM32L0xx_HAL_Driver/Src/stm32l0xx_hal_rtc_ex.c ****   * @param  Timeout: Timeout duration
1370:Drivers/STM32L0xx_HAL_Driver/Src/stm32l0xx_hal_rtc_ex.c ****   * @retval HAL status
1371:Drivers/STM32L0xx_HAL_Driver/Src/stm32l0xx_hal_rtc_ex.c ****   */
1372:Drivers/STM32L0xx_HAL_Driver/Src/stm32l0xx_hal_rtc_ex.c **** HAL_StatusTypeDef HAL_RTCEx_PollForWakeUpTimerEvent(RTC_HandleTypeDef *hrtc, uint32_t Timeout)
1373:Drivers/STM32L0xx_HAL_Driver/Src/stm32l0xx_hal_rtc_ex.c **** {
 1888              		.loc 1 1373 0
 1889              		.cfi_startproc
 1890              	.LVL142:
 1891 0000 70B5     		push	{r4, r5, r6, lr}
 1892              	.LCFI15:
 1893              		.cfi_def_cfa_offset 16
 1894              		.cfi_offset 4, -16
 1895              		.cfi_offset 5, -12
 1896              		.cfi_offset 6, -8
 1897              		.cfi_offset 14, -4
 1898 0002 041C     		mov	r4, r0
 1899 0004 0D1C     		mov	r5, r1
1374:Drivers/STM32L0xx_HAL_Driver/Src/stm32l0xx_hal_rtc_ex.c ****   uint32_t tickstart = HAL_GetTick();
 1900              		.loc 1 1374 0
 1901 0006 FFF7FEFF 		bl	HAL_GetTick
 1902              	.LVL143:
 1903 000a 061C     		mov	r6, r0
 1904              	.LVL144:
1375:Drivers/STM32L0xx_HAL_Driver/Src/stm32l0xx_hal_rtc_ex.c **** 
1376:Drivers/STM32L0xx_HAL_Driver/Src/stm32l0xx_hal_rtc_ex.c ****   while(__HAL_RTC_WAKEUPTIMER_GET_FLAG(hrtc, RTC_FLAG_WUTF) == RESET)
 1905              		.loc 1 1376 0
 1906 000c 0DE0     		b	.L116
 1907              	.LVL145:
 1908              	.L119:
1377:Drivers/STM32L0xx_HAL_Driver/Src/stm32l0xx_hal_rtc_ex.c ****   {
1378:Drivers/STM32L0xx_HAL_Driver/Src/stm32l0xx_hal_rtc_ex.c ****     if(Timeout != HAL_MAX_DELAY)
 1909              		.loc 1 1378 0
 1910 000e 6B1C     		add	r3, r5, #1
 1911 0010 0BD0     		beq	.L116
1379:Drivers/STM32L0xx_HAL_Driver/Src/stm32l0xx_hal_rtc_ex.c ****     {
1380:Drivers/STM32L0xx_HAL_Driver/Src/stm32l0xx_hal_rtc_ex.c ****       if((Timeout == 0U)||((HAL_GetTick() - tickstart ) > Timeout))
 1912              		.loc 1 1380 0
 1913 0012 002D     		cmp	r5, #0
 1914 0014 04D0     		beq	.L117
 1915              		.loc 1 1380 0 is_stmt 0 discriminator 1
 1916 0016 FFF7FEFF 		bl	HAL_GetTick
 1917              	.LVL146:
 1918 001a 801B     		sub	r0, r0, r6
 1919 001c A842     		cmp	r0, r5
 1920 001e 04D9     		bls	.L116
 1921              	.L117:
1381:Drivers/STM32L0xx_HAL_Driver/Src/stm32l0xx_hal_rtc_ex.c ****       {
1382:Drivers/STM32L0xx_HAL_Driver/Src/stm32l0xx_hal_rtc_ex.c ****         hrtc->State = HAL_RTC_STATE_TIMEOUT;
ARM GAS  /tmp/ccZ63Pwo.s 			page 59


 1922              		.loc 1 1382 0 is_stmt 1
 1923 0020 0322     		mov	r2, #3
 1924 0022 2123     		mov	r3, #33
 1925 0024 E254     		strb	r2, [r4, r3]
1383:Drivers/STM32L0xx_HAL_Driver/Src/stm32l0xx_hal_rtc_ex.c ****       
1384:Drivers/STM32L0xx_HAL_Driver/Src/stm32l0xx_hal_rtc_ex.c ****         return HAL_TIMEOUT;
 1926              		.loc 1 1384 0
 1927 0026 0320     		mov	r0, #3
 1928 0028 0DE0     		b	.L118
 1929              	.L116:
1376:Drivers/STM32L0xx_HAL_Driver/Src/stm32l0xx_hal_rtc_ex.c ****   {
 1930              		.loc 1 1376 0
 1931 002a 2368     		ldr	r3, [r4]
 1932 002c DA68     		ldr	r2, [r3, #12]
 1933 002e 5205     		lsl	r2, r2, #21
 1934 0030 EDD5     		bpl	.L119
1385:Drivers/STM32L0xx_HAL_Driver/Src/stm32l0xx_hal_rtc_ex.c ****       }
1386:Drivers/STM32L0xx_HAL_Driver/Src/stm32l0xx_hal_rtc_ex.c ****     }
1387:Drivers/STM32L0xx_HAL_Driver/Src/stm32l0xx_hal_rtc_ex.c ****   }
1388:Drivers/STM32L0xx_HAL_Driver/Src/stm32l0xx_hal_rtc_ex.c **** 
1389:Drivers/STM32L0xx_HAL_Driver/Src/stm32l0xx_hal_rtc_ex.c ****   /* Clear the WAKEUPTIMER Flag */
1390:Drivers/STM32L0xx_HAL_Driver/Src/stm32l0xx_hal_rtc_ex.c ****   __HAL_RTC_WAKEUPTIMER_CLEAR_FLAG(hrtc, RTC_FLAG_WUTF);
 1935              		.loc 1 1390 0
 1936 0032 DA68     		ldr	r2, [r3, #12]
 1937 0034 FF21     		mov	r1, #255
 1938 0036 0A40     		and	r2, r1
 1939 0038 0349     		ldr	r1, .L120
 1940 003a 0A43     		orr	r2, r1
 1941 003c DA60     		str	r2, [r3, #12]
1391:Drivers/STM32L0xx_HAL_Driver/Src/stm32l0xx_hal_rtc_ex.c ****   
1392:Drivers/STM32L0xx_HAL_Driver/Src/stm32l0xx_hal_rtc_ex.c ****   /* Change RTC state */
1393:Drivers/STM32L0xx_HAL_Driver/Src/stm32l0xx_hal_rtc_ex.c ****   hrtc->State = HAL_RTC_STATE_READY;
 1942              		.loc 1 1393 0
 1943 003e 0122     		mov	r2, #1
 1944 0040 2123     		mov	r3, #33
 1945 0042 E254     		strb	r2, [r4, r3]
1394:Drivers/STM32L0xx_HAL_Driver/Src/stm32l0xx_hal_rtc_ex.c **** 
1395:Drivers/STM32L0xx_HAL_Driver/Src/stm32l0xx_hal_rtc_ex.c ****   return HAL_OK;
 1946              		.loc 1 1395 0
 1947 0044 0020     		mov	r0, #0
 1948              	.L118:
1396:Drivers/STM32L0xx_HAL_Driver/Src/stm32l0xx_hal_rtc_ex.c **** }
 1949              		.loc 1 1396 0
 1950              		@ sp needed
 1951              	.LVL147:
 1952              	.LVL148:
 1953              	.LVL149:
 1954 0046 70BD     		pop	{r4, r5, r6, pc}
 1955              	.L121:
 1956              		.align	2
 1957              	.L120:
 1958 0048 7FFBFFFF 		.word	-1153
 1959              		.cfi_endproc
 1960              	.LFE56:
 1962              		.section	.text.HAL_RTCEx_BKUPWrite,"ax",%progbits
 1963              		.align	2
 1964              		.global	HAL_RTCEx_BKUPWrite
ARM GAS  /tmp/ccZ63Pwo.s 			page 60


 1965              		.code	16
 1966              		.thumb_func
 1968              	HAL_RTCEx_BKUPWrite:
 1969              	.LFB57:
1397:Drivers/STM32L0xx_HAL_Driver/Src/stm32l0xx_hal_rtc_ex.c **** 
1398:Drivers/STM32L0xx_HAL_Driver/Src/stm32l0xx_hal_rtc_ex.c **** /**
1399:Drivers/STM32L0xx_HAL_Driver/Src/stm32l0xx_hal_rtc_ex.c ****   * @}
1400:Drivers/STM32L0xx_HAL_Driver/Src/stm32l0xx_hal_rtc_ex.c ****   */
1401:Drivers/STM32L0xx_HAL_Driver/Src/stm32l0xx_hal_rtc_ex.c **** 
1402:Drivers/STM32L0xx_HAL_Driver/Src/stm32l0xx_hal_rtc_ex.c **** 
1403:Drivers/STM32L0xx_HAL_Driver/Src/stm32l0xx_hal_rtc_ex.c **** /** @addtogroup RTCEx_Exported_Functions_Group3
1404:Drivers/STM32L0xx_HAL_Driver/Src/stm32l0xx_hal_rtc_ex.c ****   * @brief    Extended Peripheral Control functions
1405:Drivers/STM32L0xx_HAL_Driver/Src/stm32l0xx_hal_rtc_ex.c ****   *
1406:Drivers/STM32L0xx_HAL_Driver/Src/stm32l0xx_hal_rtc_ex.c **** @verbatim   
1407:Drivers/STM32L0xx_HAL_Driver/Src/stm32l0xx_hal_rtc_ex.c ****  ===============================================================================
1408:Drivers/STM32L0xx_HAL_Driver/Src/stm32l0xx_hal_rtc_ex.c ****               ##### Extended Peripheral Control functions #####
1409:Drivers/STM32L0xx_HAL_Driver/Src/stm32l0xx_hal_rtc_ex.c ****  ===============================================================================  
1410:Drivers/STM32L0xx_HAL_Driver/Src/stm32l0xx_hal_rtc_ex.c ****     [..]
1411:Drivers/STM32L0xx_HAL_Driver/Src/stm32l0xx_hal_rtc_ex.c ****     This subsection provides functions allowing to
1412:Drivers/STM32L0xx_HAL_Driver/Src/stm32l0xx_hal_rtc_ex.c ****       (+) Write a data in a specified RTC Backup data register
1413:Drivers/STM32L0xx_HAL_Driver/Src/stm32l0xx_hal_rtc_ex.c ****       (+) Read a data in a specified RTC Backup data register
1414:Drivers/STM32L0xx_HAL_Driver/Src/stm32l0xx_hal_rtc_ex.c ****       (+) Set the Coarse calibration parameters.
1415:Drivers/STM32L0xx_HAL_Driver/Src/stm32l0xx_hal_rtc_ex.c ****       (+) Deactivate the Coarse calibration parameters
1416:Drivers/STM32L0xx_HAL_Driver/Src/stm32l0xx_hal_rtc_ex.c ****       (+) Set the Smooth calibration parameters.
1417:Drivers/STM32L0xx_HAL_Driver/Src/stm32l0xx_hal_rtc_ex.c ****       (+) Configure the Synchronization Shift Control Settings.
1418:Drivers/STM32L0xx_HAL_Driver/Src/stm32l0xx_hal_rtc_ex.c ****       (+) Configure the Calibration Pinout (RTC_CALIB) Selection (1Hz or 512Hz).
1419:Drivers/STM32L0xx_HAL_Driver/Src/stm32l0xx_hal_rtc_ex.c ****       (+) Deactivate the Calibration Pinout (RTC_CALIB) Selection (1Hz or 512Hz).
1420:Drivers/STM32L0xx_HAL_Driver/Src/stm32l0xx_hal_rtc_ex.c ****       (+) Enable the RTC reference clock detection.
1421:Drivers/STM32L0xx_HAL_Driver/Src/stm32l0xx_hal_rtc_ex.c ****       (+) Disable the RTC reference clock detection.
1422:Drivers/STM32L0xx_HAL_Driver/Src/stm32l0xx_hal_rtc_ex.c ****       (+) Enable the Bypass Shadow feature.
1423:Drivers/STM32L0xx_HAL_Driver/Src/stm32l0xx_hal_rtc_ex.c ****       (+) Disable the Bypass Shadow feature.
1424:Drivers/STM32L0xx_HAL_Driver/Src/stm32l0xx_hal_rtc_ex.c **** 
1425:Drivers/STM32L0xx_HAL_Driver/Src/stm32l0xx_hal_rtc_ex.c **** @endverbatim
1426:Drivers/STM32L0xx_HAL_Driver/Src/stm32l0xx_hal_rtc_ex.c ****   * @{
1427:Drivers/STM32L0xx_HAL_Driver/Src/stm32l0xx_hal_rtc_ex.c ****   */
1428:Drivers/STM32L0xx_HAL_Driver/Src/stm32l0xx_hal_rtc_ex.c **** 
1429:Drivers/STM32L0xx_HAL_Driver/Src/stm32l0xx_hal_rtc_ex.c **** /**
1430:Drivers/STM32L0xx_HAL_Driver/Src/stm32l0xx_hal_rtc_ex.c ****   * @brief  Write a data in a specified RTC Backup data register.
1431:Drivers/STM32L0xx_HAL_Driver/Src/stm32l0xx_hal_rtc_ex.c ****   * @param  hrtc: RTC handle 
1432:Drivers/STM32L0xx_HAL_Driver/Src/stm32l0xx_hal_rtc_ex.c ****   * @param  BackupRegister: RTC Backup data Register number.
1433:Drivers/STM32L0xx_HAL_Driver/Src/stm32l0xx_hal_rtc_ex.c ****   *          This parameter can be: RTC_BKP_DRx where x can be from 0 to 19 to 
1434:Drivers/STM32L0xx_HAL_Driver/Src/stm32l0xx_hal_rtc_ex.c ****   *                                 specify the register.
1435:Drivers/STM32L0xx_HAL_Driver/Src/stm32l0xx_hal_rtc_ex.c ****   * @param  Data: Data to be written in the specified RTC Backup data register.
1436:Drivers/STM32L0xx_HAL_Driver/Src/stm32l0xx_hal_rtc_ex.c ****   * @retval None
1437:Drivers/STM32L0xx_HAL_Driver/Src/stm32l0xx_hal_rtc_ex.c ****   */
1438:Drivers/STM32L0xx_HAL_Driver/Src/stm32l0xx_hal_rtc_ex.c **** void HAL_RTCEx_BKUPWrite(RTC_HandleTypeDef *hrtc, uint32_t BackupRegister, uint32_t Data)
1439:Drivers/STM32L0xx_HAL_Driver/Src/stm32l0xx_hal_rtc_ex.c **** {
 1970              		.loc 1 1439 0
 1971              		.cfi_startproc
 1972              	.LVL150:
1440:Drivers/STM32L0xx_HAL_Driver/Src/stm32l0xx_hal_rtc_ex.c ****   uint32_t tmp = 0U;
1441:Drivers/STM32L0xx_HAL_Driver/Src/stm32l0xx_hal_rtc_ex.c **** 
1442:Drivers/STM32L0xx_HAL_Driver/Src/stm32l0xx_hal_rtc_ex.c ****   /* Check the parameters */
1443:Drivers/STM32L0xx_HAL_Driver/Src/stm32l0xx_hal_rtc_ex.c ****   assert_param(IS_RTC_BKP(BackupRegister));
1444:Drivers/STM32L0xx_HAL_Driver/Src/stm32l0xx_hal_rtc_ex.c **** 
1445:Drivers/STM32L0xx_HAL_Driver/Src/stm32l0xx_hal_rtc_ex.c ****   tmp = (uint32_t)&(hrtc->Instance->BKP0R);
 1973              		.loc 1 1445 0
ARM GAS  /tmp/ccZ63Pwo.s 			page 61


 1974 0000 0368     		ldr	r3, [r0]
 1975 0002 5033     		add	r3, r3, #80
 1976              	.LVL151:
1446:Drivers/STM32L0xx_HAL_Driver/Src/stm32l0xx_hal_rtc_ex.c ****   tmp += (BackupRegister * 4U);
 1977              		.loc 1 1446 0
 1978 0004 8900     		lsl	r1, r1, #2
 1979              	.LVL152:
 1980 0006 C918     		add	r1, r1, r3
 1981              	.LVL153:
1447:Drivers/STM32L0xx_HAL_Driver/Src/stm32l0xx_hal_rtc_ex.c **** 
1448:Drivers/STM32L0xx_HAL_Driver/Src/stm32l0xx_hal_rtc_ex.c ****   /* Write the specified register */
1449:Drivers/STM32L0xx_HAL_Driver/Src/stm32l0xx_hal_rtc_ex.c ****   *(__IO uint32_t *)tmp = (uint32_t)Data;
 1982              		.loc 1 1449 0
 1983 0008 0A60     		str	r2, [r1]
1450:Drivers/STM32L0xx_HAL_Driver/Src/stm32l0xx_hal_rtc_ex.c **** }
 1984              		.loc 1 1450 0
 1985              		@ sp needed
 1986 000a 7047     		bx	lr
 1987              		.cfi_endproc
 1988              	.LFE57:
 1990              		.section	.text.HAL_RTCEx_BKUPRead,"ax",%progbits
 1991              		.align	2
 1992              		.global	HAL_RTCEx_BKUPRead
 1993              		.code	16
 1994              		.thumb_func
 1996              	HAL_RTCEx_BKUPRead:
 1997              	.LFB58:
1451:Drivers/STM32L0xx_HAL_Driver/Src/stm32l0xx_hal_rtc_ex.c **** 
1452:Drivers/STM32L0xx_HAL_Driver/Src/stm32l0xx_hal_rtc_ex.c **** /**
1453:Drivers/STM32L0xx_HAL_Driver/Src/stm32l0xx_hal_rtc_ex.c ****   * @brief  Reads data from the specified RTC Backup data Register.
1454:Drivers/STM32L0xx_HAL_Driver/Src/stm32l0xx_hal_rtc_ex.c ****   * @param  hrtc: RTC handle 
1455:Drivers/STM32L0xx_HAL_Driver/Src/stm32l0xx_hal_rtc_ex.c ****   * @param  BackupRegister: RTC Backup data Register number.
1456:Drivers/STM32L0xx_HAL_Driver/Src/stm32l0xx_hal_rtc_ex.c ****   *          This parameter can be: RTC_BKP_DRx where x can be from 0 to 19 to 
1457:Drivers/STM32L0xx_HAL_Driver/Src/stm32l0xx_hal_rtc_ex.c ****   *                                 specify the register.
1458:Drivers/STM32L0xx_HAL_Driver/Src/stm32l0xx_hal_rtc_ex.c ****   * @retval Read value
1459:Drivers/STM32L0xx_HAL_Driver/Src/stm32l0xx_hal_rtc_ex.c ****   */
1460:Drivers/STM32L0xx_HAL_Driver/Src/stm32l0xx_hal_rtc_ex.c **** uint32_t HAL_RTCEx_BKUPRead(RTC_HandleTypeDef *hrtc, uint32_t BackupRegister)
1461:Drivers/STM32L0xx_HAL_Driver/Src/stm32l0xx_hal_rtc_ex.c **** {
 1998              		.loc 1 1461 0
 1999              		.cfi_startproc
 2000              	.LVL154:
1462:Drivers/STM32L0xx_HAL_Driver/Src/stm32l0xx_hal_rtc_ex.c ****   uint32_t tmp = 0U;
1463:Drivers/STM32L0xx_HAL_Driver/Src/stm32l0xx_hal_rtc_ex.c **** 
1464:Drivers/STM32L0xx_HAL_Driver/Src/stm32l0xx_hal_rtc_ex.c ****   /* Check the parameters */
1465:Drivers/STM32L0xx_HAL_Driver/Src/stm32l0xx_hal_rtc_ex.c ****   assert_param(IS_RTC_BKP(BackupRegister));
1466:Drivers/STM32L0xx_HAL_Driver/Src/stm32l0xx_hal_rtc_ex.c **** 
1467:Drivers/STM32L0xx_HAL_Driver/Src/stm32l0xx_hal_rtc_ex.c ****   tmp = (uint32_t)&(hrtc->Instance->BKP0R);
 2001              		.loc 1 1467 0
 2002 0000 0368     		ldr	r3, [r0]
 2003 0002 5033     		add	r3, r3, #80
 2004              	.LVL155:
1468:Drivers/STM32L0xx_HAL_Driver/Src/stm32l0xx_hal_rtc_ex.c ****   tmp += (BackupRegister * 4U);
 2005              		.loc 1 1468 0
 2006 0004 8900     		lsl	r1, r1, #2
 2007              	.LVL156:
 2008 0006 C918     		add	r1, r1, r3
 2009              	.LVL157:
ARM GAS  /tmp/ccZ63Pwo.s 			page 62


1469:Drivers/STM32L0xx_HAL_Driver/Src/stm32l0xx_hal_rtc_ex.c ****   
1470:Drivers/STM32L0xx_HAL_Driver/Src/stm32l0xx_hal_rtc_ex.c ****   /* Read the specified register */
1471:Drivers/STM32L0xx_HAL_Driver/Src/stm32l0xx_hal_rtc_ex.c ****   return (*(__IO uint32_t *)tmp);
 2010              		.loc 1 1471 0
 2011 0008 0868     		ldr	r0, [r1]
 2012              	.LVL158:
1472:Drivers/STM32L0xx_HAL_Driver/Src/stm32l0xx_hal_rtc_ex.c **** }
 2013              		.loc 1 1472 0
 2014              		@ sp needed
 2015 000a 7047     		bx	lr
 2016              		.cfi_endproc
 2017              	.LFE58:
 2019              		.section	.text.HAL_RTCEx_SetSmoothCalib,"ax",%progbits
 2020              		.align	2
 2021              		.global	HAL_RTCEx_SetSmoothCalib
 2022              		.code	16
 2023              		.thumb_func
 2025              	HAL_RTCEx_SetSmoothCalib:
 2026              	.LFB59:
1473:Drivers/STM32L0xx_HAL_Driver/Src/stm32l0xx_hal_rtc_ex.c **** 
1474:Drivers/STM32L0xx_HAL_Driver/Src/stm32l0xx_hal_rtc_ex.c **** /**
1475:Drivers/STM32L0xx_HAL_Driver/Src/stm32l0xx_hal_rtc_ex.c ****   * @brief  Set the Smooth calibration parameters.
1476:Drivers/STM32L0xx_HAL_Driver/Src/stm32l0xx_hal_rtc_ex.c ****   * @param  hrtc: RTC handle  
1477:Drivers/STM32L0xx_HAL_Driver/Src/stm32l0xx_hal_rtc_ex.c ****   * @param  SmoothCalibPeriod: Select the Smooth Calibration Period.
1478:Drivers/STM32L0xx_HAL_Driver/Src/stm32l0xx_hal_rtc_ex.c ****   *          This parameter can be can be one of the following values :
1479:Drivers/STM32L0xx_HAL_Driver/Src/stm32l0xx_hal_rtc_ex.c ****   *             @arg RTC_SMOOTHCALIB_PERIOD_32SEC: The smooth calibration period is 32s.
1480:Drivers/STM32L0xx_HAL_Driver/Src/stm32l0xx_hal_rtc_ex.c ****   *             @arg RTC_SMOOTHCALIB_PERIOD_16SEC: The smooth calibration period is 16s.
1481:Drivers/STM32L0xx_HAL_Driver/Src/stm32l0xx_hal_rtc_ex.c ****   *             @arg RTC_SMOOTHCALIB_PERIOD_8SEC: The smooth calibration period is 8s.
1482:Drivers/STM32L0xx_HAL_Driver/Src/stm32l0xx_hal_rtc_ex.c ****   * @param  SmoothCalibPlusPulses: Select to Set or reset the CALP bit.
1483:Drivers/STM32L0xx_HAL_Driver/Src/stm32l0xx_hal_rtc_ex.c ****   *          This parameter can be one of the following values:
1484:Drivers/STM32L0xx_HAL_Driver/Src/stm32l0xx_hal_rtc_ex.c ****   *             @arg RTC_SMOOTHCALIB_PLUSPULSES_SET: Add one RTCCLK pulse every 2*11 pulses.
1485:Drivers/STM32L0xx_HAL_Driver/Src/stm32l0xx_hal_rtc_ex.c ****   *             @arg RTC_SMOOTHCALIB_PLUSPULSES_RESET: No RTCCLK pulses are added.
1486:Drivers/STM32L0xx_HAL_Driver/Src/stm32l0xx_hal_rtc_ex.c ****   * @param  SmoothCalibMinusPulsesValue: Select the value of CALM[8:0] bits.
1487:Drivers/STM32L0xx_HAL_Driver/Src/stm32l0xx_hal_rtc_ex.c ****   *          This parameter can be one any value from 0 to 0x000001FF.
1488:Drivers/STM32L0xx_HAL_Driver/Src/stm32l0xx_hal_rtc_ex.c ****   * @note   To deactivate the smooth calibration, the field SmoothCalibPlusPulses 
1489:Drivers/STM32L0xx_HAL_Driver/Src/stm32l0xx_hal_rtc_ex.c ****   *         must be equal to SMOOTHCALIB_PLUSPULSES_RESET and the field
1490:Drivers/STM32L0xx_HAL_Driver/Src/stm32l0xx_hal_rtc_ex.c ****   *         SmoothCalibMinusPulsesValue mut be equal to 0.
1491:Drivers/STM32L0xx_HAL_Driver/Src/stm32l0xx_hal_rtc_ex.c ****   * @retval HAL status
1492:Drivers/STM32L0xx_HAL_Driver/Src/stm32l0xx_hal_rtc_ex.c ****   */
1493:Drivers/STM32L0xx_HAL_Driver/Src/stm32l0xx_hal_rtc_ex.c **** HAL_StatusTypeDef HAL_RTCEx_SetSmoothCalib(RTC_HandleTypeDef* hrtc, uint32_t SmoothCalibPeriod, uin
1494:Drivers/STM32L0xx_HAL_Driver/Src/stm32l0xx_hal_rtc_ex.c **** {
 2027              		.loc 1 1494 0
 2028              		.cfi_startproc
 2029              	.LVL159:
 2030 0000 F0B5     		push	{r4, r5, r6, r7, lr}
 2031              	.LCFI16:
 2032              		.cfi_def_cfa_offset 20
 2033              		.cfi_offset 4, -20
 2034              		.cfi_offset 5, -16
 2035              		.cfi_offset 6, -12
 2036              		.cfi_offset 7, -8
 2037              		.cfi_offset 14, -4
 2038 0002 4746     		mov	r7, r8
 2039 0004 80B4     		push	{r7}
 2040              	.LCFI17:
 2041              		.cfi_def_cfa_offset 24
 2042              		.cfi_offset 8, -24
ARM GAS  /tmp/ccZ63Pwo.s 			page 63


 2043              	.LVL160:
1495:Drivers/STM32L0xx_HAL_Driver/Src/stm32l0xx_hal_rtc_ex.c ****   uint32_t tickstart = 0U;
1496:Drivers/STM32L0xx_HAL_Driver/Src/stm32l0xx_hal_rtc_ex.c **** 
1497:Drivers/STM32L0xx_HAL_Driver/Src/stm32l0xx_hal_rtc_ex.c ****   /* Check the parameters */
1498:Drivers/STM32L0xx_HAL_Driver/Src/stm32l0xx_hal_rtc_ex.c ****   assert_param(IS_RTC_SMOOTH_CALIB_PERIOD(SmoothCalibPeriod));
1499:Drivers/STM32L0xx_HAL_Driver/Src/stm32l0xx_hal_rtc_ex.c ****   assert_param(IS_RTC_SMOOTH_CALIB_PLUS(SmoothCalibPlusPulses));
1500:Drivers/STM32L0xx_HAL_Driver/Src/stm32l0xx_hal_rtc_ex.c ****   assert_param(IS_RTC_SMOOTH_CALIB_MINUS(SmoothCalibMinusPulsesValue));
1501:Drivers/STM32L0xx_HAL_Driver/Src/stm32l0xx_hal_rtc_ex.c **** 
1502:Drivers/STM32L0xx_HAL_Driver/Src/stm32l0xx_hal_rtc_ex.c ****   /* Process Locked */ 
1503:Drivers/STM32L0xx_HAL_Driver/Src/stm32l0xx_hal_rtc_ex.c ****   __HAL_LOCK(hrtc);
 2044              		.loc 1 1503 0
 2045 0006 2024     		mov	r4, #32
 2046 0008 045D     		ldrb	r4, [r0, r4]
 2047 000a 012C     		cmp	r4, #1
 2048 000c 3DD0     		beq	.L129
 2049 000e 9846     		mov	r8, r3
 2050 0010 161C     		mov	r6, r2
 2051 0012 0F1C     		mov	r7, r1
 2052 0014 041C     		mov	r4, r0
 2053              		.loc 1 1503 0 is_stmt 0 discriminator 2
 2054 0016 0122     		mov	r2, #1
 2055              	.LVL161:
 2056 0018 2023     		mov	r3, #32
 2057              	.LVL162:
 2058 001a C254     		strb	r2, [r0, r3]
1504:Drivers/STM32L0xx_HAL_Driver/Src/stm32l0xx_hal_rtc_ex.c **** 
1505:Drivers/STM32L0xx_HAL_Driver/Src/stm32l0xx_hal_rtc_ex.c ****   hrtc->State = HAL_RTC_STATE_BUSY;
 2059              		.loc 1 1505 0 is_stmt 1 discriminator 2
 2060 001c 0132     		add	r2, r2, #1
 2061 001e 0133     		add	r3, r3, #1
 2062 0020 C254     		strb	r2, [r0, r3]
1506:Drivers/STM32L0xx_HAL_Driver/Src/stm32l0xx_hal_rtc_ex.c **** 
1507:Drivers/STM32L0xx_HAL_Driver/Src/stm32l0xx_hal_rtc_ex.c ****   /* Disable the write protection for RTC registers */
1508:Drivers/STM32L0xx_HAL_Driver/Src/stm32l0xx_hal_rtc_ex.c ****   __HAL_RTC_WRITEPROTECTION_DISABLE(hrtc);
 2063              		.loc 1 1508 0 discriminator 2
 2064 0022 0368     		ldr	r3, [r0]
 2065 0024 C832     		add	r2, r2, #200
 2066 0026 5A62     		str	r2, [r3, #36]
 2067 0028 0368     		ldr	r3, [r0]
 2068 002a 773A     		sub	r2, r2, #119
 2069 002c 5A62     		str	r2, [r3, #36]
1509:Drivers/STM32L0xx_HAL_Driver/Src/stm32l0xx_hal_rtc_ex.c **** 
1510:Drivers/STM32L0xx_HAL_Driver/Src/stm32l0xx_hal_rtc_ex.c ****   /* check if a calibration is pending*/
1511:Drivers/STM32L0xx_HAL_Driver/Src/stm32l0xx_hal_rtc_ex.c ****   if((hrtc->Instance->ISR & RTC_ISR_RECALPF) != RESET)
 2070              		.loc 1 1511 0 discriminator 2
 2071 002e 0368     		ldr	r3, [r0]
 2072 0030 DB68     		ldr	r3, [r3, #12]
 2073 0032 DB03     		lsl	r3, r3, #15
 2074 0034 19D5     		bpl	.L126
1512:Drivers/STM32L0xx_HAL_Driver/Src/stm32l0xx_hal_rtc_ex.c ****   {
1513:Drivers/STM32L0xx_HAL_Driver/Src/stm32l0xx_hal_rtc_ex.c ****     tickstart = HAL_GetTick();
 2075              		.loc 1 1513 0
 2076 0036 FFF7FEFF 		bl	HAL_GetTick
 2077              	.LVL163:
 2078 003a 051C     		mov	r5, r0
 2079              	.LVL164:
1514:Drivers/STM32L0xx_HAL_Driver/Src/stm32l0xx_hal_rtc_ex.c **** 
ARM GAS  /tmp/ccZ63Pwo.s 			page 64


1515:Drivers/STM32L0xx_HAL_Driver/Src/stm32l0xx_hal_rtc_ex.c ****     /* check if a calibration is pending*/
1516:Drivers/STM32L0xx_HAL_Driver/Src/stm32l0xx_hal_rtc_ex.c ****     while((hrtc->Instance->ISR & RTC_ISR_RECALPF) != RESET)
 2080              		.loc 1 1516 0
 2081 003c 11E0     		b	.L127
 2082              	.LVL165:
 2083              	.L128:
1517:Drivers/STM32L0xx_HAL_Driver/Src/stm32l0xx_hal_rtc_ex.c ****     {
1518:Drivers/STM32L0xx_HAL_Driver/Src/stm32l0xx_hal_rtc_ex.c ****       if((HAL_GetTick() - tickstart ) > RTC_TIMEOUT_VALUE)
 2084              		.loc 1 1518 0
 2085 003e FFF7FEFF 		bl	HAL_GetTick
 2086              	.LVL166:
 2087 0042 401B     		sub	r0, r0, r5
 2088 0044 FA23     		mov	r3, #250
 2089 0046 9B00     		lsl	r3, r3, #2
 2090 0048 9842     		cmp	r0, r3
 2091 004a 0AD9     		bls	.L127
1519:Drivers/STM32L0xx_HAL_Driver/Src/stm32l0xx_hal_rtc_ex.c ****       {
1520:Drivers/STM32L0xx_HAL_Driver/Src/stm32l0xx_hal_rtc_ex.c ****         /* Enable the write protection for RTC registers */
1521:Drivers/STM32L0xx_HAL_Driver/Src/stm32l0xx_hal_rtc_ex.c ****         __HAL_RTC_WRITEPROTECTION_ENABLE(hrtc);
 2092              		.loc 1 1521 0
 2093 004c 2368     		ldr	r3, [r4]
 2094 004e FF22     		mov	r2, #255
 2095 0050 5A62     		str	r2, [r3, #36]
1522:Drivers/STM32L0xx_HAL_Driver/Src/stm32l0xx_hal_rtc_ex.c **** 
1523:Drivers/STM32L0xx_HAL_Driver/Src/stm32l0xx_hal_rtc_ex.c ****         /* Change RTC state */
1524:Drivers/STM32L0xx_HAL_Driver/Src/stm32l0xx_hal_rtc_ex.c ****         hrtc->State = HAL_RTC_STATE_TIMEOUT; 
 2096              		.loc 1 1524 0
 2097 0052 FC3A     		sub	r2, r2, #252
 2098 0054 2123     		mov	r3, #33
 2099 0056 E254     		strb	r2, [r4, r3]
1525:Drivers/STM32L0xx_HAL_Driver/Src/stm32l0xx_hal_rtc_ex.c ****         
1526:Drivers/STM32L0xx_HAL_Driver/Src/stm32l0xx_hal_rtc_ex.c ****         /* Process Unlocked */
1527:Drivers/STM32L0xx_HAL_Driver/Src/stm32l0xx_hal_rtc_ex.c ****         __HAL_UNLOCK(hrtc);
 2100              		.loc 1 1527 0
 2101 0058 0022     		mov	r2, #0
 2102 005a 013B     		sub	r3, r3, #1
 2103 005c E254     		strb	r2, [r4, r3]
1528:Drivers/STM32L0xx_HAL_Driver/Src/stm32l0xx_hal_rtc_ex.c **** 
1529:Drivers/STM32L0xx_HAL_Driver/Src/stm32l0xx_hal_rtc_ex.c ****         return HAL_TIMEOUT;
 2104              		.loc 1 1529 0
 2105 005e 0320     		mov	r0, #3
 2106 0060 14E0     		b	.L125
 2107              	.L127:
1516:Drivers/STM32L0xx_HAL_Driver/Src/stm32l0xx_hal_rtc_ex.c ****     {
 2108              		.loc 1 1516 0
 2109 0062 2368     		ldr	r3, [r4]
 2110 0064 D868     		ldr	r0, [r3, #12]
 2111 0066 C303     		lsl	r3, r0, #15
 2112 0068 E9D4     		bmi	.L128
 2113              	.LVL167:
 2114              	.L126:
1530:Drivers/STM32L0xx_HAL_Driver/Src/stm32l0xx_hal_rtc_ex.c ****       }
1531:Drivers/STM32L0xx_HAL_Driver/Src/stm32l0xx_hal_rtc_ex.c ****     }
1532:Drivers/STM32L0xx_HAL_Driver/Src/stm32l0xx_hal_rtc_ex.c ****   }
1533:Drivers/STM32L0xx_HAL_Driver/Src/stm32l0xx_hal_rtc_ex.c **** 
1534:Drivers/STM32L0xx_HAL_Driver/Src/stm32l0xx_hal_rtc_ex.c ****   /* Configure the Smooth calibration settings */
1535:Drivers/STM32L0xx_HAL_Driver/Src/stm32l0xx_hal_rtc_ex.c ****   hrtc->Instance->CALR = (uint32_t)((uint32_t)SmoothCalibPeriod | (uint32_t)SmoothCalibPlusPulses |
ARM GAS  /tmp/ccZ63Pwo.s 			page 65


 2115              		.loc 1 1535 0
 2116 006a 2368     		ldr	r3, [r4]
 2117 006c 3E43     		orr	r6, r7
 2118              	.LVL168:
 2119 006e 4546     		mov	r5, r8
 2120 0070 3543     		orr	r5, r6
 2121 0072 DD63     		str	r5, [r3, #60]
1536:Drivers/STM32L0xx_HAL_Driver/Src/stm32l0xx_hal_rtc_ex.c **** 
1537:Drivers/STM32L0xx_HAL_Driver/Src/stm32l0xx_hal_rtc_ex.c ****   /* Enable the write protection for RTC registers */
1538:Drivers/STM32L0xx_HAL_Driver/Src/stm32l0xx_hal_rtc_ex.c ****   __HAL_RTC_WRITEPROTECTION_ENABLE(hrtc);
 2122              		.loc 1 1538 0
 2123 0074 2368     		ldr	r3, [r4]
 2124 0076 FF22     		mov	r2, #255
 2125 0078 5A62     		str	r2, [r3, #36]
1539:Drivers/STM32L0xx_HAL_Driver/Src/stm32l0xx_hal_rtc_ex.c **** 
1540:Drivers/STM32L0xx_HAL_Driver/Src/stm32l0xx_hal_rtc_ex.c ****   /* Change RTC state */
1541:Drivers/STM32L0xx_HAL_Driver/Src/stm32l0xx_hal_rtc_ex.c ****   hrtc->State = HAL_RTC_STATE_READY; 
 2126              		.loc 1 1541 0
 2127 007a FE3A     		sub	r2, r2, #254
 2128 007c 2123     		mov	r3, #33
 2129 007e E254     		strb	r2, [r4, r3]
1542:Drivers/STM32L0xx_HAL_Driver/Src/stm32l0xx_hal_rtc_ex.c **** 
1543:Drivers/STM32L0xx_HAL_Driver/Src/stm32l0xx_hal_rtc_ex.c ****   /* Process Unlocked */
1544:Drivers/STM32L0xx_HAL_Driver/Src/stm32l0xx_hal_rtc_ex.c ****   __HAL_UNLOCK(hrtc);
 2130              		.loc 1 1544 0
 2131 0080 0022     		mov	r2, #0
 2132 0082 013B     		sub	r3, r3, #1
 2133 0084 E254     		strb	r2, [r4, r3]
1545:Drivers/STM32L0xx_HAL_Driver/Src/stm32l0xx_hal_rtc_ex.c **** 
1546:Drivers/STM32L0xx_HAL_Driver/Src/stm32l0xx_hal_rtc_ex.c ****   return HAL_OK;
 2134              		.loc 1 1546 0
 2135 0086 0020     		mov	r0, #0
 2136 0088 00E0     		b	.L125
 2137              	.LVL169:
 2138              	.L129:
1503:Drivers/STM32L0xx_HAL_Driver/Src/stm32l0xx_hal_rtc_ex.c **** 
 2139              		.loc 1 1503 0
 2140 008a 0220     		mov	r0, #2
 2141              	.LVL170:
 2142              	.L125:
1547:Drivers/STM32L0xx_HAL_Driver/Src/stm32l0xx_hal_rtc_ex.c **** }
 2143              		.loc 1 1547 0
 2144              		@ sp needed
 2145 008c 04BC     		pop	{r2}
 2146 008e 9046     		mov	r8, r2
 2147 0090 F0BD     		pop	{r4, r5, r6, r7, pc}
 2148              		.cfi_endproc
 2149              	.LFE59:
 2151              		.section	.text.HAL_RTCEx_SetSynchroShift,"ax",%progbits
 2152              		.align	2
 2153              		.global	HAL_RTCEx_SetSynchroShift
 2154              		.code	16
 2155              		.thumb_func
 2157              	HAL_RTCEx_SetSynchroShift:
 2158              	.LFB60:
1548:Drivers/STM32L0xx_HAL_Driver/Src/stm32l0xx_hal_rtc_ex.c **** 
1549:Drivers/STM32L0xx_HAL_Driver/Src/stm32l0xx_hal_rtc_ex.c **** /**
ARM GAS  /tmp/ccZ63Pwo.s 			page 66


1550:Drivers/STM32L0xx_HAL_Driver/Src/stm32l0xx_hal_rtc_ex.c ****   * @brief  Configure the Synchronization Shift Control Settings.
1551:Drivers/STM32L0xx_HAL_Driver/Src/stm32l0xx_hal_rtc_ex.c ****   * @note   When REFCKON is set, firmware must not write to Shift control register. 
1552:Drivers/STM32L0xx_HAL_Driver/Src/stm32l0xx_hal_rtc_ex.c ****   * @param  hrtc: RTC handle    
1553:Drivers/STM32L0xx_HAL_Driver/Src/stm32l0xx_hal_rtc_ex.c ****   * @param  ShiftAdd1S: Select to add or not 1 second to the time calendar.
1554:Drivers/STM32L0xx_HAL_Driver/Src/stm32l0xx_hal_rtc_ex.c ****   *          This parameter can be one of the following values :
1555:Drivers/STM32L0xx_HAL_Driver/Src/stm32l0xx_hal_rtc_ex.c ****   *             @arg RTC_SHIFTADD1S_SET: Add one second to the clock calendar. 
1556:Drivers/STM32L0xx_HAL_Driver/Src/stm32l0xx_hal_rtc_ex.c ****   *             @arg RTC_SHIFTADD1S_RESET: No effect.
1557:Drivers/STM32L0xx_HAL_Driver/Src/stm32l0xx_hal_rtc_ex.c ****   * @param  ShiftSubFS: Select the number of Second Fractions to substitute.
1558:Drivers/STM32L0xx_HAL_Driver/Src/stm32l0xx_hal_rtc_ex.c ****   *          This parameter can be one any value from 0 to 0x7FFF.
1559:Drivers/STM32L0xx_HAL_Driver/Src/stm32l0xx_hal_rtc_ex.c ****   * @retval HAL status
1560:Drivers/STM32L0xx_HAL_Driver/Src/stm32l0xx_hal_rtc_ex.c ****   */
1561:Drivers/STM32L0xx_HAL_Driver/Src/stm32l0xx_hal_rtc_ex.c **** HAL_StatusTypeDef HAL_RTCEx_SetSynchroShift(RTC_HandleTypeDef* hrtc, uint32_t ShiftAdd1S, uint32_t 
1562:Drivers/STM32L0xx_HAL_Driver/Src/stm32l0xx_hal_rtc_ex.c **** {
 2159              		.loc 1 1562 0
 2160              		.cfi_startproc
 2161              	.LVL171:
 2162 0000 F8B5     		push	{r3, r4, r5, r6, r7, lr}
 2163              	.LCFI18:
 2164              		.cfi_def_cfa_offset 24
 2165              		.cfi_offset 3, -24
 2166              		.cfi_offset 4, -20
 2167              		.cfi_offset 5, -16
 2168              		.cfi_offset 6, -12
 2169              		.cfi_offset 7, -8
 2170              		.cfi_offset 14, -4
 2171              	.LVL172:
1563:Drivers/STM32L0xx_HAL_Driver/Src/stm32l0xx_hal_rtc_ex.c ****   uint32_t tickstart = 0U;
1564:Drivers/STM32L0xx_HAL_Driver/Src/stm32l0xx_hal_rtc_ex.c **** 
1565:Drivers/STM32L0xx_HAL_Driver/Src/stm32l0xx_hal_rtc_ex.c ****   /* Check the parameters */
1566:Drivers/STM32L0xx_HAL_Driver/Src/stm32l0xx_hal_rtc_ex.c ****   assert_param(IS_RTC_SHIFT_ADD1S(ShiftAdd1S));
1567:Drivers/STM32L0xx_HAL_Driver/Src/stm32l0xx_hal_rtc_ex.c ****   assert_param(IS_RTC_SHIFT_SUBFS(ShiftSubFS));
1568:Drivers/STM32L0xx_HAL_Driver/Src/stm32l0xx_hal_rtc_ex.c **** 
1569:Drivers/STM32L0xx_HAL_Driver/Src/stm32l0xx_hal_rtc_ex.c ****   /* Process Locked */ 
1570:Drivers/STM32L0xx_HAL_Driver/Src/stm32l0xx_hal_rtc_ex.c ****   __HAL_LOCK(hrtc);
 2172              		.loc 1 1570 0
 2173 0002 2023     		mov	r3, #32
 2174 0004 C35C     		ldrb	r3, [r0, r3]
 2175 0006 012B     		cmp	r3, #1
 2176 0008 56D0     		beq	.L136
 2177 000a 151C     		mov	r5, r2
 2178 000c 0C1C     		mov	r4, r1
 2179 000e 061C     		mov	r6, r0
 2180              		.loc 1 1570 0 is_stmt 0 discriminator 2
 2181 0010 0122     		mov	r2, #1
 2182              	.LVL173:
 2183 0012 2023     		mov	r3, #32
 2184 0014 C254     		strb	r2, [r0, r3]
1571:Drivers/STM32L0xx_HAL_Driver/Src/stm32l0xx_hal_rtc_ex.c **** 
1572:Drivers/STM32L0xx_HAL_Driver/Src/stm32l0xx_hal_rtc_ex.c ****   hrtc->State = HAL_RTC_STATE_BUSY;
 2185              		.loc 1 1572 0 is_stmt 1 discriminator 2
 2186 0016 0132     		add	r2, r2, #1
 2187 0018 0133     		add	r3, r3, #1
 2188 001a C254     		strb	r2, [r0, r3]
1573:Drivers/STM32L0xx_HAL_Driver/Src/stm32l0xx_hal_rtc_ex.c **** 
1574:Drivers/STM32L0xx_HAL_Driver/Src/stm32l0xx_hal_rtc_ex.c ****   /* Disable the write protection for RTC registers */
1575:Drivers/STM32L0xx_HAL_Driver/Src/stm32l0xx_hal_rtc_ex.c ****   __HAL_RTC_WRITEPROTECTION_DISABLE(hrtc);
 2189              		.loc 1 1575 0 discriminator 2
ARM GAS  /tmp/ccZ63Pwo.s 			page 67


 2190 001c 0368     		ldr	r3, [r0]
 2191 001e C832     		add	r2, r2, #200
 2192 0020 5A62     		str	r2, [r3, #36]
 2193 0022 0368     		ldr	r3, [r0]
 2194 0024 773A     		sub	r2, r2, #119
 2195 0026 5A62     		str	r2, [r3, #36]
1576:Drivers/STM32L0xx_HAL_Driver/Src/stm32l0xx_hal_rtc_ex.c **** 
1577:Drivers/STM32L0xx_HAL_Driver/Src/stm32l0xx_hal_rtc_ex.c ****     tickstart = HAL_GetTick();
 2196              		.loc 1 1577 0 discriminator 2
 2197 0028 FFF7FEFF 		bl	HAL_GetTick
 2198              	.LVL174:
 2199 002c 071C     		mov	r7, r0
 2200              	.LVL175:
1578:Drivers/STM32L0xx_HAL_Driver/Src/stm32l0xx_hal_rtc_ex.c **** 
1579:Drivers/STM32L0xx_HAL_Driver/Src/stm32l0xx_hal_rtc_ex.c ****     /* Wait until the shift is completed*/
1580:Drivers/STM32L0xx_HAL_Driver/Src/stm32l0xx_hal_rtc_ex.c ****     while((hrtc->Instance->ISR & RTC_ISR_SHPF) != RESET)
 2201              		.loc 1 1580 0 discriminator 2
 2202 002e 11E0     		b	.L132
 2203              	.LVL176:
 2204              	.L133:
1581:Drivers/STM32L0xx_HAL_Driver/Src/stm32l0xx_hal_rtc_ex.c ****     {
1582:Drivers/STM32L0xx_HAL_Driver/Src/stm32l0xx_hal_rtc_ex.c ****       if((HAL_GetTick() - tickstart ) > RTC_TIMEOUT_VALUE)
 2205              		.loc 1 1582 0
 2206 0030 FFF7FEFF 		bl	HAL_GetTick
 2207              	.LVL177:
 2208 0034 C01B     		sub	r0, r0, r7
 2209 0036 FA23     		mov	r3, #250
 2210 0038 9B00     		lsl	r3, r3, #2
 2211 003a 9842     		cmp	r0, r3
 2212 003c 0AD9     		bls	.L132
1583:Drivers/STM32L0xx_HAL_Driver/Src/stm32l0xx_hal_rtc_ex.c ****       {
1584:Drivers/STM32L0xx_HAL_Driver/Src/stm32l0xx_hal_rtc_ex.c ****         /* Enable the write protection for RTC registers */
1585:Drivers/STM32L0xx_HAL_Driver/Src/stm32l0xx_hal_rtc_ex.c ****         __HAL_RTC_WRITEPROTECTION_ENABLE(hrtc);
 2213              		.loc 1 1585 0
 2214 003e 3368     		ldr	r3, [r6]
 2215 0040 FF22     		mov	r2, #255
 2216 0042 5A62     		str	r2, [r3, #36]
1586:Drivers/STM32L0xx_HAL_Driver/Src/stm32l0xx_hal_rtc_ex.c **** 
1587:Drivers/STM32L0xx_HAL_Driver/Src/stm32l0xx_hal_rtc_ex.c ****         hrtc->State = HAL_RTC_STATE_TIMEOUT;
 2217              		.loc 1 1587 0
 2218 0044 FC3A     		sub	r2, r2, #252
 2219 0046 2123     		mov	r3, #33
 2220 0048 F254     		strb	r2, [r6, r3]
1588:Drivers/STM32L0xx_HAL_Driver/Src/stm32l0xx_hal_rtc_ex.c **** 
1589:Drivers/STM32L0xx_HAL_Driver/Src/stm32l0xx_hal_rtc_ex.c ****         /* Process Unlocked */ 
1590:Drivers/STM32L0xx_HAL_Driver/Src/stm32l0xx_hal_rtc_ex.c ****         __HAL_UNLOCK(hrtc);
 2221              		.loc 1 1590 0
 2222 004a 0022     		mov	r2, #0
 2223 004c 013B     		sub	r3, r3, #1
 2224 004e F254     		strb	r2, [r6, r3]
1591:Drivers/STM32L0xx_HAL_Driver/Src/stm32l0xx_hal_rtc_ex.c **** 
1592:Drivers/STM32L0xx_HAL_Driver/Src/stm32l0xx_hal_rtc_ex.c ****         return HAL_TIMEOUT;
 2225              		.loc 1 1592 0
 2226 0050 0320     		mov	r0, #3
 2227 0052 32E0     		b	.L131
 2228              	.L132:
1580:Drivers/STM32L0xx_HAL_Driver/Src/stm32l0xx_hal_rtc_ex.c ****     {
ARM GAS  /tmp/ccZ63Pwo.s 			page 68


 2229              		.loc 1 1580 0
 2230 0054 3368     		ldr	r3, [r6]
 2231 0056 DA68     		ldr	r2, [r3, #12]
 2232 0058 1207     		lsl	r2, r2, #28
 2233 005a E9D4     		bmi	.L133
1593:Drivers/STM32L0xx_HAL_Driver/Src/stm32l0xx_hal_rtc_ex.c ****       }
1594:Drivers/STM32L0xx_HAL_Driver/Src/stm32l0xx_hal_rtc_ex.c ****     }
1595:Drivers/STM32L0xx_HAL_Driver/Src/stm32l0xx_hal_rtc_ex.c **** 
1596:Drivers/STM32L0xx_HAL_Driver/Src/stm32l0xx_hal_rtc_ex.c ****     /* Check if the reference clock detection is disabled */
1597:Drivers/STM32L0xx_HAL_Driver/Src/stm32l0xx_hal_rtc_ex.c ****     if((hrtc->Instance->CR & RTC_CR_REFCKON) == RESET)
 2234              		.loc 1 1597 0
 2235 005c 9A68     		ldr	r2, [r3, #8]
 2236 005e D206     		lsl	r2, r2, #27
 2237 0060 15D4     		bmi	.L134
1598:Drivers/STM32L0xx_HAL_Driver/Src/stm32l0xx_hal_rtc_ex.c ****     {
1599:Drivers/STM32L0xx_HAL_Driver/Src/stm32l0xx_hal_rtc_ex.c ****       /* Configure the Shift settings */
1600:Drivers/STM32L0xx_HAL_Driver/Src/stm32l0xx_hal_rtc_ex.c ****       hrtc->Instance->SHIFTR = (uint32_t)(uint32_t)(ShiftSubFS) | (uint32_t)(ShiftAdd1S);
 2238              		.loc 1 1600 0
 2239 0062 2C43     		orr	r4, r5
 2240              	.LVL178:
 2241 0064 DC62     		str	r4, [r3, #44]
1601:Drivers/STM32L0xx_HAL_Driver/Src/stm32l0xx_hal_rtc_ex.c **** 
1602:Drivers/STM32L0xx_HAL_Driver/Src/stm32l0xx_hal_rtc_ex.c ****       /* If  RTC_CR_BYPSHAD bit = 0, wait for synchro else this check is not needed */
1603:Drivers/STM32L0xx_HAL_Driver/Src/stm32l0xx_hal_rtc_ex.c ****       if((hrtc->Instance->CR & RTC_CR_BYPSHAD) == RESET)
 2242              		.loc 1 1603 0
 2243 0066 3368     		ldr	r3, [r6]
 2244 0068 9B68     		ldr	r3, [r3, #8]
 2245 006a 9B06     		lsl	r3, r3, #26
 2246 006c 19D4     		bmi	.L135
1604:Drivers/STM32L0xx_HAL_Driver/Src/stm32l0xx_hal_rtc_ex.c ****       {
1605:Drivers/STM32L0xx_HAL_Driver/Src/stm32l0xx_hal_rtc_ex.c ****         if(HAL_RTC_WaitForSynchro(hrtc) != HAL_OK)
 2247              		.loc 1 1605 0
 2248 006e 301C     		mov	r0, r6
 2249 0070 FFF7FEFF 		bl	HAL_RTC_WaitForSynchro
 2250              	.LVL179:
 2251 0074 0028     		cmp	r0, #0
 2252 0076 14D0     		beq	.L135
1606:Drivers/STM32L0xx_HAL_Driver/Src/stm32l0xx_hal_rtc_ex.c ****         {
1607:Drivers/STM32L0xx_HAL_Driver/Src/stm32l0xx_hal_rtc_ex.c ****           /* Enable the write protection for RTC registers */
1608:Drivers/STM32L0xx_HAL_Driver/Src/stm32l0xx_hal_rtc_ex.c ****           __HAL_RTC_WRITEPROTECTION_ENABLE(hrtc);
 2253              		.loc 1 1608 0
 2254 0078 3368     		ldr	r3, [r6]
 2255 007a FF22     		mov	r2, #255
 2256 007c 5A62     		str	r2, [r3, #36]
1609:Drivers/STM32L0xx_HAL_Driver/Src/stm32l0xx_hal_rtc_ex.c **** 
1610:Drivers/STM32L0xx_HAL_Driver/Src/stm32l0xx_hal_rtc_ex.c ****           hrtc->State = HAL_RTC_STATE_ERROR;
 2257              		.loc 1 1610 0
 2258 007e FB3A     		sub	r2, r2, #251
 2259 0080 2123     		mov	r3, #33
 2260 0082 F254     		strb	r2, [r6, r3]
1611:Drivers/STM32L0xx_HAL_Driver/Src/stm32l0xx_hal_rtc_ex.c **** 
1612:Drivers/STM32L0xx_HAL_Driver/Src/stm32l0xx_hal_rtc_ex.c ****           /* Process Unlocked */ 
1613:Drivers/STM32L0xx_HAL_Driver/Src/stm32l0xx_hal_rtc_ex.c ****           __HAL_UNLOCK(hrtc);
 2261              		.loc 1 1613 0
 2262 0084 0022     		mov	r2, #0
 2263 0086 013B     		sub	r3, r3, #1
 2264 0088 F254     		strb	r2, [r6, r3]
ARM GAS  /tmp/ccZ63Pwo.s 			page 69


1614:Drivers/STM32L0xx_HAL_Driver/Src/stm32l0xx_hal_rtc_ex.c **** 
1615:Drivers/STM32L0xx_HAL_Driver/Src/stm32l0xx_hal_rtc_ex.c ****           return HAL_ERROR;
 2265              		.loc 1 1615 0
 2266 008a 0120     		mov	r0, #1
 2267 008c 15E0     		b	.L131
 2268              	.LVL180:
 2269              	.L134:
1616:Drivers/STM32L0xx_HAL_Driver/Src/stm32l0xx_hal_rtc_ex.c ****         }
1617:Drivers/STM32L0xx_HAL_Driver/Src/stm32l0xx_hal_rtc_ex.c ****       }
1618:Drivers/STM32L0xx_HAL_Driver/Src/stm32l0xx_hal_rtc_ex.c ****     }
1619:Drivers/STM32L0xx_HAL_Driver/Src/stm32l0xx_hal_rtc_ex.c ****     else
1620:Drivers/STM32L0xx_HAL_Driver/Src/stm32l0xx_hal_rtc_ex.c ****     {
1621:Drivers/STM32L0xx_HAL_Driver/Src/stm32l0xx_hal_rtc_ex.c ****       /* Enable the write protection for RTC registers */
1622:Drivers/STM32L0xx_HAL_Driver/Src/stm32l0xx_hal_rtc_ex.c ****       __HAL_RTC_WRITEPROTECTION_ENABLE(hrtc);
 2270              		.loc 1 1622 0
 2271 008e FF22     		mov	r2, #255
 2272 0090 5A62     		str	r2, [r3, #36]
1623:Drivers/STM32L0xx_HAL_Driver/Src/stm32l0xx_hal_rtc_ex.c ****       
1624:Drivers/STM32L0xx_HAL_Driver/Src/stm32l0xx_hal_rtc_ex.c ****       /* Change RTC state */
1625:Drivers/STM32L0xx_HAL_Driver/Src/stm32l0xx_hal_rtc_ex.c ****       hrtc->State = HAL_RTC_STATE_ERROR;
 2273              		.loc 1 1625 0
 2274 0092 FB3A     		sub	r2, r2, #251
 2275 0094 2123     		mov	r3, #33
 2276 0096 F254     		strb	r2, [r6, r3]
